(iDraught158Games
Draught158Games
p0
(dp1
S'CurrentFirstMove'
p2
I3
sS'MyStartColor'
p3
S'white'
p4
sS'CurrentGameNr'
p5
I28
sS'GamesDraw'
p6
I25
sS'GamesWon'
p7
I1
sS'GamesLost'
p8
I1
sS'CurrentSecondMove'
p9
I3
sS'main'
p10
NsS'GamesUnknown'
p11
I1
sb.