(iDraughtCEMadmin
SwissTournament
p0
(dp1
S'status'
p2
S'start next series'
p3
sS'Tables'
p4
(lp5
(iDraughtCEMadmin
Table
p6
(dp7
S'playerB'
p8
(iDraughtCEMadmin
Player
p9
(dp10
S'sort_style'
p11
S'final'
p12
sS'results_ever'
p13
(lp14
I2
aI2
aI1
aI1
aI1
aI1
aI1
aI1
aI1
aI1
aI0
aI2
aI0
aI0
aI1
aI1
aI1
aI1
aI1
aI1
aI2
aI1
aI1
aI1
aI2
aI2
aI2
aI1
aI1
aI0
aI1
aI2
aI1
aI1
aI1
aI0
aI0
aI2
aI1
aI1
aI2
aI0
aI0
aI2
aI0
aI1
aI1
aI1
aI2
aI0
aI0
aI2
aI1
aI1
aI2
aI1
aI1
aI1
aI1
aI2
aI2
aI1
aI0
aI2
aI2
aI1
aI1
aI1
aI2
aI2
aI2
aI2
aI2
asS'results'
p15
(lp16
I2
aI2
aI1
aI1
aI1
aI1
aI1
aI1
aI1
aI1
aI0
aI2
aI0
aI0
aI1
aI1
aI1
aI1
aI1
aI1
aI2
aI1
aI1
aI1
aI2
aI2
aI2
aI1
aI1
aI0
aI1
aI2
aI1
aI1
aI1
aI0
aI0
aI2
aI1
aI1
aI2
aI0
aI0
aI2
aI0
aI1
aI1
aI1
aI2
aI0
aI0
aI2
aI1
aI1
aI2
aI1
aI1
aI1
aI1
aI2
aI2
aI1
aI0
aI2
aI2
aI1
aI1
aI1
aI2
aI2
aI2
aI2
aI2
asS'free'
p17
I00
sS'tot_got'
p18
F1.1506849315068493
sS'DeltaRating'
p19
F2.635820865808046
sS'wp'
p20
I393
sS'id'
p21
I23
sS'opponents'
p22
(lp23
I99
aI55
aI11
aI20
aI64
asS'score'
p24
I84
sS'rounds'
p25
I0
sS'opponents_ever'
p26
(lp27
I73
aI61
aI2
aI5
aI20
aI59
aI10
aI57
aI83
aI29
aI62
aI61
aI14
aI46
aI42
aI99
aI15
aI51
aI82
aI22
aI1
aI7
aI59
aI12
aI88
aI28
aI30
aI52
aI2
aI83
aI1
aI48
aI30
aI97
aI65
aI90
aI69
aI56
aI29
aI75
aI32
aI50
aI26
aI11
aI7
aI24
aI70
aI6
aI83
aI14
aI24
aI31
aI57
aI50
aI65
aI27
aI57
aI61
aI81
aI50
aI97
aI84
aI57
aI29
aI60
aI24
aI75
aI50
aI99
aI55
aI11
aI20
aI64
asS'opponents_score'
p28
(lp29
I69
aI69
aI71
aI70
aI72
aI79
aI71
aI73
aI80
aI80
aI72
aI73
aI81
aI81
aI86
asS'expected'
p30
F1.0746532510252838
sS'sb'
p31
I538
sS'opp_rating'
p32
F1031.3285107770746
sS'TournamentRating'
p33
F1059.9498729848021
sS'wp_hi_lo'
p34
I238
sbsS'status'
p35
S'waiting'
p36
sS'playerA'
p37
(iDraughtCEMadmin
Player
p38
(dp39
g11
g12
sg13
(lp40
I1
aI2
aI1
aI1
aI0
aI2
aI2
aI1
aI1
aI0
aI1
aI1
aI2
aI1
aI1
aI2
aI1
aI1
aI2
aI0
aI1
aI1
aI1
aI1
aI2
aI1
aI1
aI1
aI1
aI2
aI0
aI2
aI0
aI1
aI1
aI1
aI1
aI2
aI1
aI1
aI1
aI1
aI1
aI2
aI1
aI1
aI0
aI1
aI1
aI0
aI2
aI2
aI1
aI2
aI2
aI1
aI1
aI2
aI1
aI1
aI1
aI2
aI1
aI1
aI2
aI2
aI1
aI1
aI1
aI1
aI2
aI2
aI0
asg15
(lp41
I1
aI2
aI1
aI1
aI0
aI2
aI2
aI1
aI1
aI0
aI1
aI1
aI2
aI1
aI1
aI2
aI1
aI1
aI2
aI0
aI1
aI1
aI1
aI1
aI2
aI1
aI1
aI1
aI1
aI2
aI0
aI2
aI0
aI1
aI1
aI1
aI1
aI2
aI1
aI1
aI1
aI1
aI1
aI2
aI1
aI1
aI0
aI1
aI1
aI0
aI2
aI2
aI1
aI2
aI2
aI1
aI1
aI2
aI1
aI1
aI1
aI2
aI1
aI1
aI2
aI2
aI1
aI1
aI1
aI1
aI2
aI2
aI0
asg17
I00
sg18
F1.178082191780822
sg19
F1.32737022269514
sg20
I406
sg21
I64
sg22
(lp42
I97
aI10
aI52
aI5
aI23
asg24
I86
sg25
I0
sg26
(lp43
I14
aI30
aI88
aI11
aI93
aI73
aI80
aI13
aI66
aI86
aI85
aI16
aI38
aI6
aI77
aI8
aI62
aI76
aI42
aI69
aI86
aI19
aI11
aI75
aI32
aI72
aI36
aI2
aI11
aI33
aI50
aI44
aI83
aI55
aI66
aI5
aI49
aI0
aI63
aI50
aI36
aI65
aI68
aI27
aI84
aI40
aI79
aI75
aI29
aI29
aI15
aI22
aI40
aI59
aI32
aI65
aI94
aI63
aI2
aI79
aI94
aI11
aI79
aI45
aI11
aI94
aI52
aI52
aI97
aI10
aI52
aI5
aI23
asg28
(lp44
I72
aI73
aI73
aI75
aI74
aI83
aI76
aI75
aI85
aI82
aI77
aI76
aI86
aI83
aI84
asg30
F1.1429475152070878
sg31
I398
sg32
F1038.2622380368509
sg33
F1089.5971560325947
sg34
I248
sbsba(iDraughtCEMadmin
Table
p45
(dp46
g8
(iDraughtCEMadmin
Player
p47
(dp48
g11
g12
sg13
(lp49
I2
aI1
aI2
aI1
aI2
aI0
aI1
aI0
aI2
aI2
aI0
aI0
aI2
aI1
aI1
aI1
aI0
aI1
aI1
aI1
aI1
aI2
aI0
aI1
aI1
aI2
aI0
aI2
aI1
aI0
aI1
aI1
aI2
aI1
aI2
aI1
aI1
aI2
aI1
aI1
aI2
aI1
aI1
aI1
aI2
aI0
aI1
aI1
aI0
aI1
aI2
aI1
aI1
aI2
aI1
aI2
aI0
aI2
aI1
aI1
aI2
aI2
aI0
aI1
aI1
aI1
aI1
aI1
aI2
aI2
aI2
aI0
aI1
asg15
(lp50
I2
aI1
aI2
aI1
aI2
aI0
aI1
aI0
aI2
aI2
aI0
aI0
aI2
aI1
aI1
aI1
aI0
aI1
aI1
aI1
aI1
aI2
aI0
aI1
aI1
aI2
aI0
aI2
aI1
aI0
aI1
aI1
aI2
aI1
aI2
aI1
aI1
aI2
aI1
aI1
aI2
aI1
aI1
aI1
aI2
aI0
aI1
aI1
aI0
aI1
aI2
aI1
aI1
aI2
aI1
aI2
aI0
aI2
aI1
aI1
aI2
aI2
aI0
aI1
aI1
aI1
aI1
aI1
aI2
aI2
aI2
aI0
aI1
asg17
I00
sg18
F1.1369863013698631
sg19
F1.0994703923166753
sg20
I404
sg21
I5
sg22
(lp51
I7
aI65
aI94
aI64
aI52
asg24
I83
sg25
I0
sg26
(lp52
I55
aI51
aI15
aI23
aI6
aI11
aI76
aI69
aI59
aI86
aI78
aI26
aI34
aI52
aI24
aI0
aI10
aI41
aI34
aI8
aI76
aI75
aI59
aI80
aI94
aI53
aI7
aI3
aI31
aI60
aI86
aI67
aI33
aI51
aI64
aI74
aI72
aI93
aI2
aI16
aI84
aI51
aI60
aI62
aI65
aI2
aI19
aI27
aI55
aI32
aI97
aI62
aI70
aI96
aI20
aI50
aI18
aI1
aI99
aI75
aI11
aI94
aI20
aI45
aI10
aI20
aI31
aI40
aI7
aI65
aI94
aI64
aI52
asg28
(lp53
I71
aI72
aI72
aI74
aI72
aI81
aI74
aI73
aI81
aI86
aI76
aI75
aI81
aI86
aI86
asg30
F1.1051305073024307
sg31
I647
sg32
F1035.8111418005933
sg33
F1073.5721582697433
sg34
I247
sbsg35
g36
sg37
(iDraughtCEMadmin
Player
p54
(dp55
g11
g12
sg13
(lp56
I0
aI2
aI0
aI0
aI2
aI1
aI2
aI2
aI1
aI1
aI1
aI2
aI1
aI1
aI1
aI2
aI2
aI2
aI1
aI1
aI2
aI1
aI0
aI1
aI2
aI1
aI0
aI1
aI1
aI1
aI1
aI1
aI1
aI0
aI1
aI1
aI2
aI1
aI0
aI1
aI1
aI1
aI2
aI2
aI1
aI1
aI0
aI1
aI1
aI2
aI1
aI1
aI2
aI1
aI1
aI1
aI2
aI0
aI1
aI2
aI1
aI2
aI2
aI2
aI1
aI1
aI2
aI1
aI1
aI2
aI0
aI2
aI1
asg15
(lp57
I0
aI2
aI0
aI0
aI2
aI1
aI2
aI2
aI1
aI1
aI1
aI2
aI1
aI1
aI1
aI2
aI2
aI2
aI1
aI1
aI2
aI1
aI0
aI1
aI2
aI1
aI0
aI1
aI1
aI1
aI1
aI1
aI1
aI0
aI1
aI1
aI2
aI1
aI0
aI1
aI1
aI1
aI2
aI2
aI1
aI1
aI0
aI1
aI1
aI2
aI1
aI1
aI2
aI1
aI1
aI1
aI2
aI0
aI1
aI2
aI1
aI2
aI2
aI2
aI1
aI1
aI2
aI1
aI1
aI2
aI0
aI2
aI1
asg17
I00
sg18
F1.178082191780822
sg19
F1.3974657145109406
sg20
I400
sg21
I52
sg22
(lp58
I10
aI79
aI64
aI94
aI5
asg24
I86
sg25
I0
sg26
(lp59
I2
aI22
aI10
aI21
aI58
aI13
aI51
aI86
aI6
aI88
aI41
aI96
aI3
aI89
aI5
aI12
aI65
aI57
aI50
aI62
aI79
aI94
aI20
aI9
aI27
aI62
aI23
aI40
aI97
aI72
aI26
aI86
aI36
aI75
aI93
aI26
aI6
aI20
aI93
aI33
aI19
aI14
aI71
aI79
aI84
aI40
aI53
aI81
aI81
aI50
aI83
aI93
aI6
aI27
aI36
aI97
aI94
aI19
aI83
aI36
aI94
aI94
aI59
aI79
aI94
aI20
aI64
aI64
aI10
aI79
aI64
aI94
aI5
asg28
(lp60
I72
aI73
aI72
aI74
aI73
aI84
aI75
aI73
aI86
aI81
aI76
aI74
aI86
aI81
aI83
asg30
F1.1409706631293246
sg31
I314
sg32
F1043.9310945471361
sg33
F1094.6351531165376
sg34
I242
sbsba(iDraughtCEMadmin
Table
p61
(dp62
g8
(iDraughtCEMadmin
Player
p63
(dp64
g11
g12
sg13
(lp65
I1
aI2
aI1
aI1
aI1
aI1
aI1
aI2
aI1
aI1
aI1
aI1
aI0
aI2
aI0
aI1
aI1
aI2
aI2
aI0
aI1
aI2
aI2
aI2
aI1
aI0
aI1
aI0
aI1
aI2
aI2
aI0
aI1
aI1
aI1
aI2
aI2
aI1
aI2
aI1
aI2
aI0
aI1
aI2
aI2
aI0
aI1
aI1
aI1
aI1
aI2
aI1
aI0
aI0
aI0
aI1
aI1
aI1
aI1
aI1
aI1
aI1
aI1
aI0
aI2
aI1
aI2
aI1
aI0
aI2
aI2
aI2
aI2
asg15
(lp66
I1
aI2
aI1
aI1
aI1
aI1
aI1
aI2
aI1
aI1
aI1
aI1
aI0
aI2
aI0
aI1
aI1
aI2
aI2
aI0
aI1
aI2
aI2
aI2
aI1
aI0
aI1
aI0
aI1
aI2
aI2
aI0
aI1
aI1
aI1
aI2
aI2
aI1
aI2
aI1
aI2
aI0
aI1
aI2
aI2
aI0
aI1
aI1
aI1
aI1
aI2
aI1
aI0
aI0
aI0
aI1
aI1
aI1
aI1
aI1
aI1
aI1
aI1
aI0
aI2
aI1
aI2
aI1
aI0
aI2
aI2
aI2
aI2
asg17
I00
sg18
F1.1369863013698631
sg19
F0.69258712632886277
sg20
I393
sg21
I90
sg22
(lp67
I66
aI30
aI2
aI27
aI94
asg24
I83
sg25
I0
sg26
(lp68
I40
aI3
aI32
aI53
aI7
aI85
aI28
aI17
aI20
aI24
aI29
aI2
aI84
aI13
aI33
aI29
aI10
aI24
aI34
aI29
aI40
aI59
aI14
aI83
aI74
aI99
aI2
aI40
aI53
aI0
aI69
aI8
aI15
aI65
aI97
aI23
aI10
aI67
aI36
aI20
aI83
aI96
aI46
aI11
aI94
aI94
aI83
aI65
aI6
aI24
aI65
aI94
aI11
aI24
aI31
aI62
aI18
aI84
aI30
aI30
aI53
aI40
aI27
aI10
aI0
aI50
aI36
aI27
aI66
aI30
aI2
aI27
aI94
asg28
(lp69
I72
aI74
aI70
aI76
aI72
aI77
aI76
aI74
aI78
aI79
aI78
aI74
aI79
aI81
aI81
asg30
F1.1166973439595174
sg31
I467
sg32
F1042.3757156131846
sg33
F1083.7986814762248
sg34
I242
sbsg35
g36
sg37
(iDraughtCEMadmin
Player
p70
(dp71
g11
g12
sg13
(lp72
I2
aI1
aI2
aI2
aI1
aI2
aI1
aI2
aI2
aI1
aI1
aI2
aI1
aI2
aI1
aI0
aI1
aI0
aI2
aI1
aI1
aI1
aI2
aI1
aI1
aI0
aI1
aI1
aI1
aI1
aI1
aI1
aI1
aI2
aI1
aI1
aI2
aI1
aI1
aI1
aI2
aI0
aI1
aI1
aI2
aI2
aI2
aI0
aI1
aI2
aI1
aI1
aI1
aI2
aI1
aI1
aI1
aI2
aI2
aI1
aI1
aI0
aI0
aI1
aI1
aI1
aI1
aI0
aI1
aI0
aI0
aI0
aI0
asg15
(lp73
I2
aI1
aI2
aI2
aI1
aI2
aI1
aI2
aI2
aI1
aI1
aI2
aI1
aI2
aI1
aI0
aI1
aI0
aI2
aI1
aI1
aI1
aI2
aI1
aI1
aI0
aI1
aI1
aI1
aI1
aI1
aI1
aI1
aI2
aI1
aI1
aI2
aI1
aI1
aI1
aI2
aI0
aI1
aI1
aI2
aI2
aI2
aI0
aI1
aI2
aI1
aI1
aI1
aI2
aI1
aI1
aI1
aI2
aI2
aI1
aI1
aI0
aI0
aI1
aI1
aI1
aI1
aI0
aI1
aI0
aI0
aI0
aI0
asg17
I00
sg18
F1.1095890410958904
sg19
F-3.0637527922158827
sg20
I403
sg21
I94
sg22
(lp74
I79
aI96
aI5
aI52
aI90
asg24
I81
sg25
I0
sg26
(lp75
I44
aI85
aI97
aI2
aI32
aI84
aI21
aI46
aI63
aI0
aI86
aI60
aI69
aI30
aI22
aI97
aI60
aI15
aI79
aI83
aI52
aI62
aI69
aI5
aI63
aI84
aI79
aI20
aI67
aI50
aI40
aI63
aI84
aI51
aI22
aI79
aI83
aI11
aI6
aI45
aI83
aI90
aI90
aI93
aI11
aI11
aI61
aI6
aI11
aI90
aI65
aI22
aI22
aI11
aI64
aI52
aI83
aI61
aI11
aI64
aI52
aI5
aI52
aI6
aI63
aI52
aI64
aI11
aI79
aI96
aI5
aI52
aI90
asg28
(lp76
I72
aI72
aI75
aI73
aI76
aI82
aI73
aI77
aI82
aI85
aI74
aI77
aI83
aI86
aI83
asg30
F1.1958027285681496
sg31
I646
sg32
F1055.0876948455698
sg33
F1120.9427199755128
sg34
I245
sbsba(iDraughtCEMadmin
Table
p77
(dp78
g8
(iDraughtCEMadmin
Player
p79
(dp80
g11
g12
sg13
(lp81
I2
aI2
aI1
aI1
aI1
aI2
aI2
aI0
aI1
aI2
aI1
aI1
aI1
aI1
aI1
aI1
aI1
aI1
aI1
aI2
aI0
aI2
aI1
aI1
aI0
aI1
aI2
aI2
aI1
aI1
aI1
aI2
aI1
aI1
aI0
aI1
aI0
aI1
aI2
aI2
aI0
aI1
aI0
aI2
aI2
aI1
aI1
aI1
aI1
aI2
aI1
aI1
aI1
aI0
aI1
aI0
aI2
aI1
aI0
aI2
aI1
aI1
aI2
aI2
aI1
aI1
aI0
aI0
aI1
aI2
aI2
aI0
aI1
asg15
(lp82
I2
aI2
aI1
aI1
aI1
aI2
aI2
aI0
aI1
aI2
aI1
aI1
aI1
aI1
aI1
aI1
aI1
aI1
aI1
aI2
aI0
aI2
aI1
aI1
aI0
aI1
aI2
aI2
aI1
aI1
aI1
aI2
aI1
aI1
aI0
aI1
aI0
aI1
aI2
aI2
aI0
aI1
aI0
aI2
aI2
aI1
aI1
aI1
aI1
aI2
aI1
aI1
aI1
aI0
aI1
aI0
aI2
aI1
aI0
aI2
aI1
aI1
aI2
aI2
aI1
aI1
aI0
aI0
aI1
aI2
aI2
aI0
aI1
asg17
I00
sg18
F1.1095890410958904
sg19
F-0.56050464223858398
sg20
I393
sg21
I20
sg22
(lp83
I65
aI6
aI50
aI23
aI11
asg24
I81
sg25
I0
sg26
(lp84
I70
aI60
aI46
aI8
aI23
aI88
aI87
aI33
aI90
aI41
aI97
aI0
aI96
aI56
aI83
aI30
aI68
aI16
aI32
aI83
aI68
aI79
aI63
aI52
aI78
aI24
aI19
aI63
aI86
aI94
aI9
aI96
aI11
aI40
aI79
aI30
aI32
aI49
aI52
aI30
aI90
aI40
aI7
aI86
aI63
aI11
aI65
aI40
aI57
aI59
aI36
aI75
aI84
aI33
aI10
aI5
aI40
aI36
aI6
aI15
aI36
aI53
aI5
aI99
aI97
aI5
aI52
aI31
aI65
aI6
aI50
aI23
aI11
asg28
(lp85
I72
aI72
aI72
aI72
aI73
aI78
aI73
aI73
aI79
aI82
aI75
aI74
aI79
aI84
aI81
asg30
F1.1256473708807493
sg31
I542
sg32
F1045.5941146993255
sg33
F1088.9199064794727
sg34
I237
sbsg35
g36
sg37
(iDraughtCEMadmin
Player
p86
(dp87
g11
g12
sg13
(lp88
I1
aI1
aI1
aI1
aI0
aI2
aI1
aI1
aI1
aI2
aI1
aI1
aI1
aI1
aI2
aI1
aI0
aI2
aI1
aI2
aI1
aI1
aI1
aI1
aI1
aI2
aI0
aI2
aI1
aI2
aI2
aI2
aI1
aI2
aI1
aI0
aI2
aI0
aI1
aI2
aI2
aI2
aI0
aI0
aI0
aI1
aI2
aI2
aI2
aI1
aI1
aI2
aI2
aI2
aI1
aI1
aI2
aI2
aI0
aI0
aI1
aI0
aI1
aI0
aI0
aI0
aI1
aI2
aI0
aI1
aI0
aI1
aI1
asg15
(lp89
I1
aI1
aI1
aI1
aI0
aI2
aI1
aI1
aI1
aI2
aI1
aI1
aI1
aI1
aI2
aI1
aI0
aI2
aI1
aI2
aI1
aI1
aI1
aI1
aI1
aI2
aI0
aI2
aI1
aI2
aI2
aI2
aI1
aI2
aI1
aI0
aI2
aI0
aI1
aI2
aI2
aI2
aI0
aI0
aI0
aI1
aI2
aI2
aI2
aI1
aI1
aI2
aI2
aI2
aI1
aI1
aI2
aI2
aI0
aI0
aI1
aI0
aI1
aI0
aI0
aI0
aI1
aI2
aI0
aI1
aI0
aI1
aI1
asg17
I00
sg18
F1.1095890410958904
sg19
F-2.0491969679041633
sg20
I401
sg21
I11
sg22
(lp90
I19
aI97
aI23
aI33
aI20
asg24
I81
sg25
I0
sg26
(lp91
I61
aI4
aI66
aI64
aI72
aI81
aI5
aI43
aI99
aI32
aI65
aI59
aI82
aI38
aI49
aI86
aI76
aI32
aI98
aI73
aI97
aI49
aI64
aI65
aI96
aI50
aI84
aI59
aI64
aI75
aI3
aI29
aI20
aI84
aI79
aI46
aI45
aI79
aI40
aI94
aI15
aI23
aI90
aI20
aI32
aI94
aI83
aI94
aI45
aI31
aI94
aI93
aI90
aI66
aI66
aI94
aI65
aI50
aI27
aI31
aI94
aI5
aI64
aI24
aI33
aI64
aI40
aI94
aI19
aI97
aI23
aI33
aI20
asg28
(lp92
I73
aI75
aI73
aI77
aI75
aI80
aI78
aI76
aI82
aI79
aI79
aI77
aI84
aI80
aI81
asg30
F1.1675675886971459
sg31
I320
sg32
F1041.277850700546
sg33
F1098.0018734116834
sg34
I244
sbsba(iDraughtCEMadmin
Table
p93
(dp94
g8
(iDraughtCEMadmin
Player
p95
(dp96
g11
g12
sg13
(lp97
I1
aI1
aI1
aI1
aI1
aI1
aI1
aI2
aI2
aI1
aI1
aI0
aI2
aI1
aI2
aI0
aI1
aI0
aI1
aI1
aI0
aI0
aI2
aI1
aI2
aI2
aI2
aI1
aI2
aI0
aI0
aI1
aI1
aI1
aI1
aI2
aI2
aI1
aI0
aI2
aI1
aI1
aI0
aI1
aI0
aI2
aI0
aI2
aI0
aI1
aI1
aI1
aI1
aI2
aI2
aI2
aI1
aI1
aI1
aI0
aI1
aI1
aI1
aI1
aI2
aI0
aI2
aI2
aI1
aI1
aI2
aI1
aI1
asg15
(lp98
I1
aI1
aI1
aI1
aI1
aI1
aI1
aI2
aI2
aI1
aI1
aI0
aI2
aI1
aI2
aI0
aI1
aI0
aI1
aI1
aI0
aI0
aI2
aI1
aI2
aI2
aI2
aI1
aI2
aI0
aI0
aI1
aI1
aI1
aI1
aI2
aI2
aI1
aI0
aI2
aI1
aI1
aI0
aI1
aI0
aI2
aI0
aI2
aI0
aI1
aI1
aI1
aI1
aI2
aI2
aI2
aI1
aI1
aI1
aI0
aI1
aI1
aI1
aI1
aI2
aI0
aI2
aI2
aI1
aI1
aI2
aI1
aI1
asg17
I00
sg18
F1.095890410958904
sg19
F0.91655490245864257
sg20
I385
sg21
I33
sg22
(lp99
I83
aI29
aI93
aI11
aI31
asg24
I80
sg25
I0
sg26
(lp100
I83
aI70
aI76
aI13
aI10
aI78
aI79
aI20
aI7
aI1
aI83
aI68
aI13
aI70
aI90
aI2
aI12
aI80
aI28
aI51
aI15
aI48
aI27
aI83
aI88
aI26
aI75
aI57
aI64
aI78
aI41
aI9
aI5
aI7
aI18
aI41
aI69
aI97
aI62
aI52
aI59
aI27
aI12
aI66
aI6
aI97
aI7
aI24
aI14
aI65
aI27
aI60
aI29
aI20
aI46
aI15
aI62
aI93
aI60
aI14
aI65
aI31
aI2
aI86
aI11
aI93
aI7
aI57
aI83
aI29
aI93
aI11
aI31
asg28
(lp101
I71
aI72
aI71
aI73
aI72
aI76
aI74
aI73
aI77
aI80
aI74
aI73
aI77
aI81
aI80
asg30
F1.0701943837697923
sg31
I385
sg32
F1030.2045707118386
sg33
F1055.5493265897107
sg34
I233
sbsg35
g36
sg37
(iDraughtCEMadmin
Player
p102
(dp103
g11
g12
sg13
(lp104
I1
aI1
aI0
aI1
aI0
aI0
aI2
aI1
aI2
aI0
aI0
aI1
aI2
aI2
aI1
aI2
aI1
aI1
aI0
aI2
aI2
aI1
aI1
aI1
aI1
aI0
aI2
aI2
aI1
aI2
aI0
aI0
aI1
aI1
aI2
aI0
aI1
aI1
aI0
aI2
aI1
aI1
aI0
aI2
aI1
aI1
aI1
aI2
aI1
aI1
aI1
aI0
aI1
aI2
aI2
aI1
aI2
aI1
aI0
aI2
aI1
aI1
aI1
aI2
aI2
aI2
aI1
aI2
aI0
aI1
aI1
aI1
aI1
asg15
(lp105
I1
aI1
aI0
aI1
aI0
aI0
aI2
aI1
aI2
aI0
aI0
aI1
aI2
aI2
aI1
aI2
aI1
aI1
aI0
aI2
aI2
aI1
aI1
aI1
aI1
aI0
aI2
aI2
aI1
aI2
aI0
aI0
aI1
aI1
aI2
aI0
aI1
aI1
aI0
aI2
aI1
aI1
aI0
aI2
aI1
aI1
aI1
aI2
aI1
aI1
aI1
aI0
aI1
aI2
aI2
aI1
aI2
aI1
aI0
aI2
aI1
aI1
aI1
aI2
aI2
aI2
aI1
aI2
aI0
aI1
aI1
aI1
aI1
asg17
I00
sg18
F1.095890410958904
sg19
F1.292495565059403
sg20
I392
sg21
I31
sg22
(lp106
I18
aI59
aI63
aI50
aI33
asg24
I80
sg25
I0
sg26
(lp107
I81
aI68
aI83
aI80
aI9
aI3
aI14
aI47
aI44
aI27
aI28
aI91
aI41
aI66
aI6
aI28
aI57
aI47
aI63
aI14
aI67
aI10
aI74
aI45
aI60
aI34
aI69
aI46
aI36
aI5
aI48
aI70
aI45
aI18
aI14
aI7
aI40
aI84
aI18
aI44
aI9
aI55
aI83
aI97
aI60
aI96
aI46
aI81
aI93
aI11
aI59
aI23
aI45
aI93
aI90
aI30
aI15
aI24
aI29
aI11
aI93
aI33
aI7
aI60
aI1
aI75
aI5
aI20
aI18
aI59
aI63
aI50
aI33
asg28
(lp108
I73
aI74
aI73
aI75
aI73
aI77
aI76
aI75
aI78
aI79
aI77
aI77
aI79
aI79
aI80
asg30
F1.0594194933532974
sg31
I233
sg32
F1022.8069732308973
sg33
F1044.7682631453627
sg34
I239
sbsba(iDraughtCEMadmin
Table
p109
(dp110
g8
(iDraughtCEMadmin
Player
p111
(dp112
g11
g12
sg13
(lp113
I1
aI0
aI1
aI1
aI1
aI1
aI1
aI2
aI1
aI1
aI1
aI1
aI1
aI1
aI2
aI1
aI0
aI2
aI0
aI1
aI1
aI0
aI0
aI1
aI2
aI0
aI2
aI1
aI1
aI2
aI2
aI1
aI2
aI2
aI2
aI1
aI1
aI2
aI1
aI1
aI0
aI2
aI2
aI1
aI0
aI2
aI1
aI1
aI1
aI1
aI1
aI2
aI2
aI1
aI1
aI1
aI2
aI0
aI0
aI0
aI1
aI2
aI0
aI1
aI1
aI1
aI1
aI1
aI2
aI2
aI0
aI1
aI0
asg15
(lp114
I1
aI0
aI1
aI1
aI1
aI1
aI1
aI2
aI1
aI1
aI1
aI1
aI1
aI1
aI2
aI1
aI0
aI2
aI0
aI1
aI1
aI0
aI0
aI1
aI2
aI0
aI2
aI1
aI1
aI2
aI2
aI1
aI2
aI2
aI2
aI1
aI1
aI2
aI1
aI1
aI0
aI2
aI2
aI1
aI0
aI2
aI1
aI1
aI1
aI1
aI1
aI2
aI2
aI1
aI1
aI1
aI2
aI0
aI0
aI0
aI1
aI2
aI0
aI1
aI1
aI1
aI1
aI1
aI2
aI2
aI0
aI1
aI0
asg17
I00
sg18
F1.0821917808219179
sg19
F-0.0015515835302721825
sg20
I391
sg21
I50
sg22
(lp115
I30
aI61
aI20
aI31
aI27
asg24
I79
sg25
I0
sg26
(lp116
I0
aI2
aI49
aI39
aI73
aI60
aI16
aI42
aI57
aI34
aI72
aI10
aI63
aI25
aI41
aI7
aI84
aI72
aI38
aI52
aI99
aI24
aI67
aI89
aI75
aI11
aI71
aI16
aI1
aI78
aI64
aI94
aI74
aI10
aI55
aI75
aI81
aI14
aI30
aI64
aI63
aI23
aI67
aI9
aI93
aI22
aI84
aI62
aI60
aI70
aI52
aI2
aI75
aI23
aI19
aI63
aI5
aI11
aI57
aI23
aI24
aI62
aI75
aI19
aI19
aI90
aI84
aI23
aI30
aI61
aI20
aI31
aI27
asg28
(lp117
I70
aI70
aI71
aI72
aI72
aI80
aI74
aI73
aI80
aI79
aI74
aI75
aI81
aI80
aI81
asg30
F1.0830517867625171
sg31
I316
sg32
F1028.1449394790286
sg33
F1057.0651537308011
sg34
I240
sbsg35
g36
sg37
(iDraughtCEMadmin
Player
p118
(dp119
g11
g12
sg13
(lp120
I1
aI2
aI1
aI1
aI1
aI1
aI0
aI1
aI0
aI2
aI0
aI1
aI2
aI2
aI1
aI0
aI0
aI1
aI0
aI2
aI1
aI1
aI2
aI1
aI1
aI1
aI0
aI0
aI1
aI1
aI1
aI1
aI1
aI1
aI1
aI1
aI1
aI1
aI1
aI1
aI1
aI2
aI2
aI0
aI1
aI2
aI1
aI1
aI2
aI2
aI1
aI1
aI2
aI0
aI1
aI1
aI2
aI1
aI2
aI1
aI2
aI2
aI1
aI1
aI1
aI1
aI2
aI1
aI1
aI1
aI2
aI0
aI2
asg15
(lp121
I1
aI2
aI1
aI1
aI1
aI1
aI0
aI1
aI0
aI2
aI0
aI1
aI2
aI2
aI1
aI0
aI0
aI1
aI0
aI2
aI1
aI1
aI2
aI1
aI1
aI1
aI0
aI0
aI1
aI1
aI1
aI1
aI1
aI1
aI1
aI1
aI1
aI1
aI1
aI1
aI1
aI2
aI2
aI0
aI1
aI2
aI1
aI1
aI2
aI2
aI1
aI1
aI2
aI0
aI1
aI1
aI2
aI1
aI2
aI1
aI2
aI2
aI1
aI1
aI1
aI1
aI2
aI1
aI1
aI1
aI2
aI0
aI2
asg17
I00
sg18
F1.1095890410958904
sg19
F1.8987794446624777
sg20
I392
sg21
I27
sg22
(lp122
I61
aI7
aI53
aI90
aI50
asg24
I81
sg25
I0
sg26
(lp123
I77
aI56
aI59
aI30
aI15
aI60
aI0
aI88
aI31
aI53
aI48
aI29
aI79
aI98
aI40
aI51
aI61
aI79
aI59
aI56
aI67
aI89
aI33
aI62
aI52
aI12
aI44
aI28
aI41
aI48
aI75
aI22
aI1
aI6
aI74
aI48
aI15
aI19
aI8
aI12
aI0
aI44
aI33
aI64
aI51
aI71
aI29
aI96
aI5
aI62
aI33
aI29
aI96
aI12
aI52
aI23
aI66
aI57
aI11
aI29
aI10
aI24
aI90
aI61
aI61
aI36
aI57
aI90
aI61
aI7
aI53
aI90
aI50
asg28
(lp124
I71
aI71
aI72
aI72
aI74
aI77
aI73
aI74
aI78
aI81
aI75
aI76
aI79
aI83
aI79
asg30
F1.0554740190010763
sg31
I468
sg32
F1024.0139102358446
sg33
F1045.2061452338824
sg34
I238
sbsba(iDraughtCEMadmin
Table
p125
(dp126
g8
(iDraughtCEMadmin
Player
p127
(dp128
g11
g12
sg13
(lp129
I1
aI2
aI1
aI1
aI1
aI1
aI1
aI2
aI2
aI1
aI1
aI2
aI1
aI1
aI1
aI1
aI1
aI1
aI2
aI1
aI1
aI1
aI2
aI0
aI1
aI2
aI1
aI0
aI1
aI1
aI1
aI2
aI2
aI0
aI0
aI2
aI0
aI1
aI1
aI1
aI2
aI1
aI2
aI0
aI0
aI1
aI0
aI1
aI1
aI1
aI1
aI2
aI2
aI1
aI2
aI1
aI1
aI0
aI0
aI0
aI0
aI1
aI2
aI1
aI1
aI1
aI2
aI1
aI1
aI2
aI1
aI1
aI1
asg15
(lp130
I1
aI2
aI1
aI1
aI1
aI1
aI1
aI2
aI2
aI1
aI1
aI2
aI1
aI1
aI1
aI1
aI1
aI1
aI2
aI1
aI1
aI1
aI2
aI0
aI1
aI2
aI1
aI0
aI1
aI1
aI1
aI2
aI2
aI0
aI0
aI2
aI0
aI1
aI1
aI1
aI2
aI1
aI2
aI0
aI0
aI1
aI0
aI1
aI1
aI1
aI1
aI2
aI2
aI1
aI2
aI1
aI1
aI0
aI0
aI0
aI0
aI1
aI2
aI1
aI1
aI1
aI2
aI1
aI1
aI2
aI1
aI1
aI1
asg17
I00
sg18
F1.0821917808219179
sg19
F-0.43234506294916175
sg20
I379
sg21
I63
sg22
(lp131
I15
aI32
aI31
aI24
aI40
asg24
I79
sg25
I0
sg26
(lp132
I13
aI25
aI93
aI16
aI85
aI69
aI75
aI80
aI12
aI94
aI1
aI22
aI50
aI32
aI30
aI75
aI83
aI31
aI99
aI2
aI84
aI20
aI79
aI16
aI16
aI94
aI20
aI15
aI97
aI40
aI7
aI74
aI36
aI94
aI30
aI19
aI29
aI70
aI64
aI59
aI50
aI79
aI86
aI96
aI20
aI19
aI62
aI7
aI1
aI67
aI30
aI7
aI83
aI51
aI60
aI50
aI36
aI64
aI61
aI45
aI57
aI99
aI10
aI51
aI94
aI96
aI65
aI16
aI15
aI32
aI31
aI24
aI40
asg28
(lp133
I69
aI70
aI68
aI70
aI68
aI78
aI70
aI70
aI79
aI78
aI71
aI71
aI80
aI78
aI79
asg30
F1.0953521978189091
sg31
I450
sg32
F1040.1026250906882
sg33
F1072.8999806572306
sg34
I231
sbsg35
g36
sg37
(iDraughtCEMadmin
Player
p134
(dp135
g11
g12
sg13
(lp136
I1
aI2
aI1
aI2
aI1
aI1
aI0
aI1
aI1
aI1
aI1
aI1
aI1
aI1
aI1
aI2
aI1
aI1
aI1
aI1
aI1
aI2
aI1
aI1
aI2
aI2
aI0
aI2
aI1
aI1
aI2
aI2
aI1
aI1
aI0
aI1
aI1
aI0
aI2
aI2
aI0
aI1
aI1
aI1
aI1
aI1
aI2
aI1
aI0
aI2
aI0
aI1
aI1
aI1
aI1
aI1
aI0
aI1
aI2
aI1
aI1
aI1
aI2
aI1
aI1
aI2
aI1
aI1
aI0
aI0
aI1
aI1
aI1
asg15
(lp137
I1
aI2
aI1
aI2
aI1
aI1
aI0
aI1
aI1
aI1
aI1
aI1
aI1
aI1
aI1
aI2
aI1
aI1
aI1
aI1
aI1
aI2
aI1
aI1
aI2
aI2
aI0
aI2
aI1
aI1
aI2
aI2
aI1
aI1
aI0
aI1
aI1
aI0
aI2
aI2
aI0
aI1
aI1
aI1
aI1
aI1
aI2
aI1
aI0
aI2
aI0
aI1
aI1
aI1
aI1
aI1
aI0
aI1
aI2
aI1
aI1
aI1
aI2
aI1
aI1
aI2
aI1
aI1
aI0
aI0
aI1
aI1
aI1
asg17
I00
sg18
F1.0821917808219179
sg19
F-0.66157088265933917
sg20
I393
sg21
I40
sg22
(lp138
I96
aI66
aI62
aI16
aI63
asg24
I79
sg25
I0
sg26
(lp139
I90
aI82
aI42
aI69
aI59
aI54
aI76
aI44
aI72
aI93
aI59
aI51
aI21
aI80
aI7
aI27
aI86
aI84
aI55
aI80
aI90
aI18
aI86
aI49
aI71
aI6
aI79
aI90
aI52
aI63
aI8
aI53
aI94
aI20
aI84
aI36
aI31
aI51
aI2
aI65
aI11
aI20
aI70
aI70
aI65
aI64
aI52
aI20
aI24
aI46
aI93
aI16
aI64
aI60
aI6
aI84
aI20
aI79
aI45
aI66
aI16
aI90
aI18
aI97
aI59
aI57
aI11
aI5
aI96
aI66
aI62
aI16
aI63
asg28
(lp140
I73
aI75
aI74
aI76
aI76
aI76
aI77
aI76
aI78
aI77
aI77
aI78
aI80
aI79
aI79
asg30
F1.1018856561588803
sg31
I550
sg32
F1037.0661473050252
sg33
F1071.9265352489592
sg34
I240
sbsba(iDraughtCEMadmin
Table
p141
(dp142
g8
(iDraughtCEMadmin
Player
p143
(dp144
g11
g12
sg13
(lp145
I1
aI1
aI2
aI2
aI1
aI1
aI0
aI2
aI1
aI1
aI2
aI0
aI1
aI2
aI1
aI1
aI1
aI2
aI1
aI2
aI0
aI2
aI2
aI1
aI1
aI1
aI2
aI1
aI0
aI0
aI0
aI1
aI1
aI1
aI1
aI0
aI1
aI1
aI1
aI0
aI2
aI2
aI1
aI2
aI0
aI2
aI2
aI1
aI1
aI0
aI1
aI1
aI1
aI1
aI1
aI1
aI1
aI1
aI1
aI1
aI1
aI0
aI1
aI0
aI1
aI1
aI1
aI2
aI2
aI1
aI1
aI2
aI2
asg15
(lp146
I1
aI1
aI2
aI2
aI1
aI1
aI0
aI2
aI1
aI1
aI2
aI0
aI1
aI2
aI1
aI1
aI1
aI2
aI1
aI2
aI0
aI2
aI2
aI1
aI1
aI1
aI2
aI1
aI0
aI0
aI0
aI1
aI1
aI1
aI1
aI0
aI1
aI1
aI1
aI0
aI2
aI2
aI1
aI2
aI0
aI2
aI2
aI1
aI1
aI0
aI1
aI1
aI1
aI1
aI1
aI1
aI1
aI1
aI1
aI1
aI1
aI0
aI1
aI0
aI1
aI1
aI1
aI2
aI2
aI1
aI1
aI2
aI2
asg17
I00
sg18
F1.095890410958904
sg19
F0.42012641869487199
sg20
I377
sg21
I62
sg22
(lp147
I86
aI22
aI40
aI66
aI24
asg24
I80
sg25
I0
sg26
(lp148
I12
aI24
aI87
aI10
aI8
aI30
aI67
aI28
aI29
aI8
aI23
aI97
aI54
aI3
aI97
aI65
aI64
aI75
aI1
aI47
aI52
aI14
aI83
aI94
aI27
aI51
aI52
aI79
aI84
aI86
aI45
aI81
aI57
aI75
aI65
aI72
aI8
aI66
aI33
aI86
aI29
aI49
aI99
aI5
aI97
aI63
aI93
aI50
aI51
aI27
aI7
aI18
aI5
aI0
aI0
aI90
aI33
aI16
aI3
aI60
aI18
aI50
aI93
aI22
aI75
aI97
aI10
aI66
aI86
aI22
aI40
aI66
aI24
asg28
(lp149
I65
aI66
aI68
aI68
aI70
aI77
aI69
aI71
aI78
aI76
aI70
aI72
aI79
aI78
aI78
asg30
F1.0843971304129645
sg31
I534
sg32
F1035.7958118247398
sg33
F1065.608424056486
sg34
I233
sbsg35
g36
sg37
(iDraughtCEMadmin
Player
p150
(dp151
g11
g12
sg13
(lp152
I2
aI1
aI1
aI1
aI1
aI2
aI2
aI0
aI1
aI1
aI1
aI0
aI1
aI2
aI1
aI1
aI0
aI0
aI1
aI1
aI1
aI2
aI0
aI0
aI2
aI1
aI1
aI2
aI2
aI1
aI1
aI1
aI0
aI2
aI1
aI1
aI1
aI1
aI1
aI0
aI1
aI1
aI1
aI1
aI2
aI1
aI1
aI0
aI2
aI1
aI2
aI0
aI1
aI2
aI2
aI1
aI1
aI1
aI1
aI2
aI1
aI0
aI1
aI2
aI2
aI1
aI1
aI2
aI0
aI1
aI1
aI1
aI0
asg15
(lp153
I2
aI1
aI1
aI1
aI1
aI2
aI2
aI0
aI1
aI1
aI1
aI0
aI1
aI2
aI1
aI1
aI0
aI0
aI1
aI1
aI1
aI2
aI0
aI0
aI2
aI1
aI1
aI2
aI2
aI1
aI1
aI1
aI0
aI2
aI1
aI1
aI1
aI1
aI1
aI0
aI1
aI1
aI1
aI1
aI2
aI1
aI1
aI0
aI2
aI1
aI2
aI0
aI1
aI2
aI2
aI1
aI1
aI1
aI1
aI2
aI1
aI0
aI1
aI2
aI2
aI1
aI1
aI2
aI0
aI1
aI1
aI1
aI0
asg17
I00
sg18
F1.0684931506849316
sg19
F0.38333369260244582
sg20
I389
sg21
I24
sg22
(lp154
I59
aI83
aI75
aI63
aI62
asg24
I78
sg25
I0
sg26
(lp155
I74
aI62
aI6
aI93
aI36
aI89
aI19
aI2
aI1
aI90
aI78
aI88
aI9
aI87
aI8
aI5
aI79
aI90
aI4
aI97
aI15
aI50
aI0
aI66
aI20
aI1
aI72
aI81
aI68
aI77
aI77
aI7
aI45
aI22
aI59
aI76
aI79
aI7
aI32
aI6
aI86
aI84
aI84
aI81
aI23
aI59
aI33
aI40
aI90
aI23
aI15
aI59
aI90
aI12
aI61
aI53
aI7
aI31
aI86
aI86
aI50
aI27
aI65
aI11
aI30
aI23
aI93
aI84
aI59
aI83
aI75
aI63
aI62
asg28
(lp156
I72
aI73
aI72
aI73
aI73
aI77
aI75
aI74
aI78
aI78
aI77
aI74
aI79
aI79
aI80
asg30
F1.0586066970157304
sg31
I466
sg32
F1034.1066728481626
sg33
F1054.8754196147406
sg34
I237
sbsba(iDraughtCEMadmin
Table
p157
(dp158
g8
(iDraughtCEMadmin
Player
p159
(dp160
g11
g12
sg13
(lp161
I0
aI1
aI1
aI1
aI1
aI1
aI1
aI2
aI1
aI1
aI1
aI2
aI1
aI1
aI2
aI2
aI1
aI0
aI2
aI1
aI0
aI1
aI2
aI1
aI0
aI2
aI1
aI1
aI2
aI0
aI1
aI1
aI2
aI1
aI1
aI1
aI1
aI0
aI1
aI1
aI1
aI0
aI2
aI1
aI1
aI2
aI2
aI1
aI1
aI2
aI2
aI1
aI0
aI1
aI1
aI1
aI1
aI1
aI2
aI1
aI0
aI2
aI2
aI0
aI1
aI0
aI1
aI0
aI2
aI1
aI1
aI1
aI1
asg15
(lp162
I0
aI1
aI1
aI1
aI1
aI1
aI1
aI2
aI1
aI1
aI1
aI2
aI1
aI1
aI2
aI2
aI1
aI0
aI2
aI1
aI0
aI1
aI2
aI1
aI0
aI2
aI1
aI1
aI2
aI0
aI1
aI1
aI2
aI1
aI1
aI1
aI1
aI0
aI1
aI1
aI1
aI0
aI2
aI1
aI1
aI2
aI2
aI1
aI1
aI2
aI2
aI1
aI0
aI1
aI1
aI1
aI1
aI1
aI2
aI1
aI0
aI2
aI2
aI0
aI1
aI0
aI1
aI0
aI2
aI1
aI1
aI1
aI1
asg17
I00
sg18
F1.0821917808219179
sg19
F0.12822440073687177
sg20
I380
sg21
I75
sg22
(lp163
I45
aI0
aI24
aI53
aI2
asg24
I79
sg25
I0
sg26
(lp164
I25
aI37
aI57
aI17
aI55
aI98
aI63
aI67
aI34
aI61
aI45
aI14
aI48
aI21
aI88
aI78
aI63
aI62
aI92
aI85
aI14
aI86
aI5
aI64
aI50
aI42
aI68
aI33
aI51
aI11
aI27
aI6
aI46
aI62
aI52
aI50
aI99
aI81
aI55
aI23
aI57
aI18
aI76
aI69
aI15
aI45
aI66
aI64
aI0
aI86
aI83
aI20
aI50
aI45
aI45
aI18
aI84
aI65
aI22
aI1
aI5
aI16
aI50
aI96
aI62
aI31
aI23
aI93
aI45
aI0
aI24
aI53
aI2
asg28
(lp165
I68
aI69
aI70
aI70
aI71
aI77
aI71
aI71
aI78
aI78
aI72
aI72
aI78
aI79
aI79
asg30
F1.0793411641062001
sg31
I308
sg32
F1021.0406365698116
sg33
F1048.7928669631797
sg34
I233
sbsg35
g36
sg37
(iDraughtCEMadmin
Player
p166
(dp167
g11
g12
sg13
(lp168
I2
aI2
aI1
aI0
aI0
aI0
aI2
aI2
aI2
aI1
aI1
aI1
aI1
aI0
aI1
aI2
aI1
aI1
aI2
aI2
aI1
aI1
aI1
aI1
aI1
aI1
aI1
aI1
aI1
aI1
aI2
aI2
aI0
aI2
aI1
aI0
aI1
aI1
aI0
aI1
aI1
aI0
aI1
aI2
aI2
aI1
aI1
aI2
aI0
aI2
aI1
aI0
aI0
aI0
aI1
aI0
aI2
aI1
aI1
aI1
aI2
aI1
aI1
aI2
aI0
aI0
aI2
aI2
aI2
aI2
aI0
aI1
aI1
asg15
(lp169
I2
aI2
aI1
aI0
aI0
aI0
aI2
aI2
aI2
aI1
aI1
aI1
aI1
aI0
aI1
aI2
aI1
aI1
aI2
aI2
aI1
aI1
aI1
aI1
aI1
aI1
aI1
aI1
aI1
aI1
aI2
aI2
aI0
aI2
aI1
aI0
aI1
aI1
aI0
aI1
aI1
aI0
aI1
aI2
aI2
aI1
aI1
aI2
aI0
aI2
aI1
aI0
aI0
aI0
aI1
aI0
aI2
aI1
aI1
aI1
aI2
aI1
aI1
aI2
aI0
aI0
aI2
aI2
aI2
aI2
aI0
aI1
aI1
asg17
I00
sg18
F1.0821917808219179
sg19
F-0.023839421861976007
sg20
I386
sg21
I2
sg22
(lp170
I22
aI1
aI90
aI19
aI75
asg24
I79
sg25
I0
sg26
(lp171
I52
aI50
aI23
aI94
aI30
aI68
aI32
aI24
aI18
aI83
aI66
aI90
aI70
aI10
aI93
aI15
aI33
aI49
aI28
aI42
aI63
aI22
aI36
aI84
aI6
aI61
aI90
aI64
aI23
aI15
aI44
aI72
aI84
aI86
aI36
aI83
aI67
aI87
aI40
aI5
aI19
aI53
aI12
aI77
aI36
aI30
aI5
aI15
aI96
aI51
aI84
aI50
aI97
aI1
aI14
aI79
aI22
aI83
aI64
aI81
aI0
aI93
aI33
aI3
aI29
aI53
aI97
aI96
aI22
aI1
aI90
aI19
aI75
asg28
(lp172
I67
aI68
aI69
aI70
aI70
aI79
aI71
aI72
aI81
aI78
aI72
aI73
aI83
aI79
aI79
asg30
F1.0836888235099504
sg31
I373
sg32
F1039.3838611529236
sg33
F1068.5046659496813
sg34
I236
sbsba(iDraughtCEMadmin
Table
p173
(dp174
g8
(iDraughtCEMadmin
Player
p175
(dp176
g11
g12
sg13
(lp177
I0
aI2
aI0
aI2
aI1
aI0
aI0
aI1
aI1
aI2
aI2
aI2
aI1
aI1
aI1
aI1
aI1
aI1
aI1
aI2
aI2
aI1
aI1
aI2
aI1
aI1
aI0
aI1
aI1
aI1
aI1
aI1
aI1
aI1
aI2
aI0
aI1
aI1
aI1
aI2
aI1
aI1
aI0
aI2
aI1
aI1
aI1
aI1
aI0
aI1
aI1
aI1
aI0
aI1
aI1
aI1
aI1
aI1
aI1
aI2
aI1
aI1
aI0
aI1
aI1
aI2
aI1
aI1
aI2
aI2
aI2
aI1
aI1
asg15
(lp178
I0
aI2
aI0
aI2
aI1
aI0
aI0
aI1
aI1
aI2
aI2
aI2
aI1
aI1
aI1
aI1
aI1
aI1
aI1
aI2
aI2
aI1
aI1
aI2
aI1
aI1
aI0
aI1
aI1
aI1
aI1
aI1
aI1
aI1
aI2
aI0
aI1
aI1
aI1
aI2
aI1
aI1
aI0
aI2
aI1
aI1
aI1
aI1
aI0
aI1
aI1
aI1
aI0
aI1
aI1
aI1
aI1
aI1
aI1
aI2
aI1
aI1
aI0
aI1
aI1
aI2
aI1
aI1
aI2
aI2
aI2
aI1
aI1
asg17
I00
sg18
F1.0821917808219179
sg19
F1.546528593846574
sg20
I383
sg21
I19
sg22
(lp179
I11
aI3
aI36
aI2
aI53
asg24
I79
sg25
I0
sg26
(lp180
I69
aI12
aI47
aI38
aI14
aI45
aI24
aI32
aI92
aI91
aI9
aI49
aI43
aI43
aI84
aI76
aI32
aI78
aI39
aI87
aI76
aI64
aI22
aI86
aI72
aI9
aI20
aI53
aI0
aI59
aI56
aI78
aI10
aI61
aI86
aI63
aI12
aI27
aI57
aI86
aI2
aI52
aI71
aI78
aI16
aI63
aI36
aI5
aI12
aI49
aI53
aI57
aI7
aI84
aI50
aI66
aI45
aI30
aI52
aI65
aI96
aI97
aI6
aI50
aI50
aI45
aI66
aI18
aI11
aI3
aI36
aI2
aI53
asg28
(lp181
I78
aI79
aI67
aI79
aI67
aI75
aI80
aI67
aI76
aI78
aI81
aI68
aI76
aI79
aI79
asg30
F1.0386669163543414
sg31
I373
sg32
F1017.3750445955899
sg33
F1032.3625372509705
sg34
I235
sbsg35
g36
sg37
(iDraughtCEMadmin
Player
p182
(dp183
g11
g12
sg13
(lp184
I1
aI1
aI2
aI1
aI0
aI1
aI2
aI0
aI1
aI1
aI2
aI0
aI2
aI1
aI0
aI1
aI2
aI0
aI1
aI0
aI1
aI1
aI2
aI2
aI2
aI1
aI2
aI1
aI1
aI0
aI0
aI0
aI2
aI1
aI2
aI1
aI2
aI1
aI1
aI1
aI1
aI2
aI1
aI1
aI2
aI1
aI1
aI1
aI0
aI0
aI1
aI1
aI1
aI1
aI2
aI1
aI2
aI1
aI2
aI1
aI1
aI1
aI1
aI0
aI0
aI2
aI1
aI2
aI1
aI2
aI0
aI1
aI1
asg15
(lp185
I1
aI1
aI2
aI1
aI0
aI1
aI2
aI0
aI1
aI1
aI2
aI0
aI2
aI1
aI0
aI1
aI2
aI0
aI1
aI0
aI1
aI1
aI2
aI2
aI2
aI1
aI2
aI1
aI1
aI0
aI0
aI0
aI2
aI1
aI2
aI1
aI2
aI1
aI1
aI1
aI1
aI2
aI1
aI1
aI2
aI1
aI1
aI1
aI0
aI0
aI1
aI1
aI1
aI1
aI2
aI1
aI2
aI1
aI2
aI1
aI1
aI1
aI1
aI0
aI0
aI2
aI1
aI2
aI1
aI2
aI0
aI1
aI1
asg17
I00
sg18
F1.0821917808219179
sg19
F0.20654065498167712
sg20
I384
sg21
I53
sg22
(lp186
I29
aI99
aI27
aI75
aI19
asg24
I79
sg25
I0
sg26
(lp187
I3
aI6
aI18
aI90
aI88
aI22
aI39
aI58
aI49
aI87
aI27
aI79
aI83
aI81
aI59
aI45
aI98
aI93
aI37
aI83
aI29
aI96
aI13
aI92
aI85
aI5
aI19
aI90
aI30
aI98
aI40
aI3
aI14
aI10
aI22
aI56
aI77
aI16
aI29
aI45
aI2
aI10
aI87
aI57
aI18
aI30
aI52
aI3
aI0
aI19
aI32
aI22
aI49
aI49
aI93
aI24
aI83
aI97
aI9
aI22
aI90
aI20
aI36
aI30
aI66
aI2
aI16
aI36
aI29
aI99
aI27
aI75
aI19
asg28
(lp188
I70
aI71
aI69
aI72
aI70
aI79
aI73
aI71
aI79
aI78
aI73
aI72
aI81
aI79
aI79
asg30
F1.0771008339848784
sg31
I386
sg32
F1021.2416254614734
sg33
F1048.2890095666382
sg34
I234
sbsba(iDraughtCEMadmin
Table
p189
(dp190
g8
(iDraughtCEMadmin
Player
p191
(dp192
g11
g12
sg13
(lp193
I2
aI0
aI1
aI1
aI1
aI1
aI1
aI1
aI1
aI1
aI0
aI1
aI2
aI2
aI1
aI1
aI2
aI1
aI1
aI2
aI2
aI1
aI1
aI1
aI2
aI1
aI2
aI1
aI2
aI2
aI1
aI0
aI2
aI0
aI2
aI1
aI0
aI1
aI1
aI0
aI1
aI1
aI1
aI1
aI1
aI1
aI1
aI1
aI1
aI1
aI1
aI2
aI1
aI1
aI0
aI1
aI1
aI1
aI1
aI0
aI1
aI1
aI1
aI1
aI1
aI2
aI1
aI0
aI1
aI1
aI1
aI1
aI2
asg15
(lp194
I2
aI0
aI1
aI1
aI1
aI1
aI1
aI1
aI1
aI1
aI0
aI1
aI2
aI2
aI1
aI1
aI2
aI1
aI1
aI2
aI2
aI1
aI1
aI1
aI2
aI1
aI2
aI1
aI2
aI2
aI1
aI0
aI2
aI0
aI2
aI1
aI0
aI1
aI1
aI0
aI1
aI1
aI1
aI1
aI1
aI1
aI1
aI1
aI1
aI1
aI1
aI2
aI1
aI1
aI0
aI1
aI1
aI1
aI1
aI0
aI1
aI1
aI1
aI1
aI1
aI2
aI1
aI0
aI1
aI1
aI1
aI1
aI2
asg17
I00
sg18
F1.0821917808219179
sg19
F-0.65372319621401409
sg20
I376
sg21
I84
sg22
(lp195
I0
aI15
aI16
aI93
aI96
asg24
I79
sg25
I0
sg26
(lp196
I34
aI13
aI99
aI67
aI87
aI94
aI82
aI42
aI96
aI61
aI6
aI90
aI0
aI19
aI93
aI50
aI40
aI61
aI88
aI12
aI63
aI30
aI2
aI76
aI74
aI11
aI94
aI62
aI18
aI7
aI2
aI11
aI40
aI79
aI94
aI16
aI31
aI65
aI79
aI83
aI79
aI5
aI24
aI24
aI64
aI52
aI50
aI93
aI46
aI60
aI2
aI79
aI20
aI19
aI99
aI40
aI75
aI90
aI66
aI0
aI7
aI23
aI16
aI55
aI15
aI7
aI50
aI24
aI0
aI15
aI16
aI93
aI96
asg28
(lp197
I69
aI70
aI70
aI71
aI70
aI76
aI71
aI70
aI77
aI77
aI72
aI71
aI79
aI77
aI77
asg30
F1.1016621211788189
sg31
I377
sg32
F1041.5857234284513
sg33
F1076.3754821943774
sg34
I228
sbsg35
g36
sg37
(iDraughtCEMadmin
Player
p198
(dp199
g11
g12
sg13
(lp200
I0
aI2
aI0
aI2
aI2
aI1
aI1
aI0
aI1
aI1
aI2
aI0
aI1
aI0
aI2
aI0
aI1
aI1
aI1
aI1
aI1
aI1
aI0
aI1
aI1
aI1
aI1
aI2
aI1
aI2
aI2
aI0
aI1
aI1
aI1
aI1
aI1
aI1
aI2
aI1
aI1
aI1
aI1
aI2
aI0
aI1
aI0
aI1
aI2
aI1
aI2
aI1
aI0
aI1
aI1
aI1
aI2
aI2
aI1
aI1
aI1
aI1
aI1
aI2
aI0
aI1
aI2
aI0
aI2
aI2
aI1
aI1
aI0
asg15
(lp201
I0
aI2
aI0
aI2
aI2
aI1
aI1
aI0
aI1
aI1
aI2
aI0
aI1
aI0
aI2
aI0
aI1
aI1
aI1
aI1
aI1
aI1
aI0
aI1
aI1
aI1
aI1
aI2
aI1
aI2
aI2
aI0
aI1
aI1
aI1
aI1
aI1
aI1
aI2
aI1
aI1
aI1
aI1
aI2
aI0
aI1
aI0
aI1
aI2
aI1
aI2
aI1
aI0
aI1
aI1
aI1
aI2
aI2
aI1
aI1
aI1
aI1
aI1
aI2
aI0
aI1
aI2
aI0
aI2
aI2
aI1
aI1
aI0
asg17
I00
sg18
F1.0547945205479452
sg19
F1.1058192673204759
sg20
I392
sg21
I96
sg22
(lp202
I40
aI94
aI18
aI36
aI84
asg24
I77
sg25
I0
sg26
(lp203
I46
aI49
aI0
aI56
aI44
aI77
aI26
aI61
aI67
aI84
aI89
aI52
aI20
aI37
aI34
aI49
aI6
aI54
aI36
aI12
aI71
aI53
aI56
aI44
aI11
aI49
aI32
aI77
aI72
aI1
aI97
aI20
aI26
aI32
aI29
aI67
aI30
aI65
aI87
aI6
aI68
aI9
aI90
aI63
aI45
aI31
aI81
aI27
aI2
aI79
aI10
aI61
aI27
aI36
aI5
aI1
aI32
aI45
aI68
aI36
aI19
aI79
aI59
aI75
aI3
aI63
aI55
aI2
aI40
aI94
aI18
aI36
aI84
asg28
(lp204
I76
aI76
aI81
aI77
aI81
aI75
aI78
aI81
aI76
aI76
aI79
aI81
aI77
aI76
aI79
asg30
F1.0243825857406743
sg31
I472
sg32
F1022.6628886616053
sg33
F1032.241765255721
sg34
I236
sbsba(iDraughtCEMadmin
Table
p205
(dp206
g8
(iDraughtCEMadmin
Player
p207
(dp208
g11
g12
sg13
(lp209
I1
aI2
aI1
aI1
aI0
aI2
aI1
aI1
aI1
aI1
aI1
aI1
aI0
aI2
aI1
aI1
aI0
aI1
aI1
aI1
aI0
aI2
aI1
aI1
aI1
aI0
aI1
aI1
aI1
aI1
aI1
aI1
aI2
aI1
aI2
aI1
aI2
aI2
aI1
aI2
aI0
aI2
aI1
aI1
aI1
aI1
aI2
aI1
aI1
aI2
aI1
aI1
aI1
aI0
aI1
aI0
aI2
aI1
aI2
aI1
aI1
aI0
aI1
aI1
aI0
aI2
aI1
aI1
aI1
aI1
aI1
aI1
aI2
asg15
(lp210
I1
aI2
aI1
aI1
aI0
aI2
aI1
aI1
aI1
aI1
aI1
aI1
aI0
aI2
aI1
aI1
aI0
aI1
aI1
aI1
aI0
aI2
aI1
aI1
aI1
aI0
aI1
aI1
aI1
aI1
aI1
aI1
aI2
aI1
aI2
aI1
aI2
aI2
aI1
aI2
aI0
aI2
aI1
aI1
aI1
aI1
aI2
aI1
aI1
aI2
aI1
aI1
aI1
aI0
aI1
aI0
aI2
aI1
aI2
aI1
aI1
aI0
aI1
aI1
aI0
aI2
aI1
aI1
aI1
aI1
aI1
aI1
aI2
asg17
I00
sg18
F1.0821917808219179
sg19
F0.36933911018061283
sg20
I380
sg21
I16
sg22
(lp211
I1
aI45
aI84
aI40
aI93
asg24
I79
sg25
I0
sg26
(lp212
I66
aI43
aI72
aI63
aI46
aI10
aI50
aI74
aI30
aI12
aI51
aI64
aI58
aI88
aI29
aI71
aI49
aI57
aI20
aI39
aI57
aI29
aI76
aI46
aI63
aI63
aI48
aI50
aI47
aI56
aI15
aI97
aI87
aI81
aI99
aI51
aI84
aI13
aI53
aI9
aI5
aI15
aI99
aI51
aI19
aI66
aI22
aI30
aI86
aI99
aI79
aI40
aI36
aI10
aI59
aI97
aI61
aI62
aI55
aI3
aI40
aI75
aI84
aI15
aI55
aI18
aI53
aI63
aI1
aI45
aI84
aI40
aI93
asg28
(lp213
I69
aI69
aI69
aI70
aI70
aI76
aI72
aI71
aI77
aI78
aI73
aI72
aI79
aI79
aI77
asg30
F1.0724413229518852
sg31
I375
sg32
F1023.3480353872724
sg33
F1048.9302333956468
sg34
I232
sbsg35
g36
sg37
(iDraughtCEMadmin
Player
p214
(dp215
g11
g12
sg13
(lp216
I2
aI1
aI1
aI1
aI2
aI1
aI1
aI0
aI1
aI1
aI0
aI2
aI1
aI1
aI1
aI1
aI1
aI2
aI1
aI2
aI0
aI2
aI2
aI0
aI1
aI0
aI1
aI1
aI2
aI1
aI1
aI1
aI1
aI2
aI1
aI1
aI1
aI1
aI1
aI1
aI2
aI2
aI1
aI1
aI2
aI2
aI0
aI1
aI1
aI1
aI2
aI0
aI0
aI0
aI1
aI1
aI1
aI1
aI1
aI0
aI1
aI1
aI1
aI2
aI1
aI2
aI1
aI2
aI1
aI0
aI0
aI1
aI0
asg15
(lp217
I2
aI1
aI1
aI1
aI2
aI1
aI1
aI0
aI1
aI1
aI0
aI2
aI1
aI1
aI1
aI1
aI1
aI2
aI1
aI2
aI0
aI2
aI2
aI0
aI1
aI0
aI1
aI1
aI2
aI1
aI1
aI1
aI1
aI2
aI1
aI1
aI1
aI1
aI1
aI1
aI2
aI2
aI1
aI1
aI2
aI2
aI0
aI1
aI1
aI1
aI2
aI0
aI0
aI0
aI1
aI1
aI1
aI1
aI1
aI0
aI1
aI1
aI1
aI2
aI1
aI2
aI1
aI2
aI1
aI0
aI0
aI1
aI0
asg17
I00
sg18
F1.0547945205479452
sg19
F-0.84313180235196805
sg20
I388
sg21
I93
sg22
(lp218
I55
aI57
aI33
aI84
aI16
asg24
I77
sg25
I0
sg26
(lp219
I43
aI83
aI63
aI24
aI64
aI0
aI13
aI87
aI78
aI40
aI88
aI47
aI87
aI58
aI2
aI84
aI71
aI53
aI58
aI70
aI36
aI51
aI68
aI30
aI56
aI1
aI10
aI14
aI8
aI65
aI6
aI69
aI66
aI0
aI52
aI14
aI44
aI5
aI52
aI66
aI36
aI55
aI55
aI50
aI83
aI94
aI62
aI84
aI31
aI45
aI40
aI11
aI52
aI31
aI86
aI53
aI79
aI33
aI32
aI55
aI31
aI2
aI62
aI9
aI22
aI33
aI24
aI75
aI55
aI57
aI33
aI84
aI16
asg28
(lp220
I71
aI71
aI74
aI72
aI74
aI78
aI73
aI76
aI79
aI77
aI73
aI77
aI80
aI79
aI79
asg30
F1.0803094145517771
sg31
I540
sg32
F1031.4228691334267
sg33
F1058.5423053545944
sg34
I237
sbsba(iDraughtCEMadmin
Table
p221
(dp222
g8
(iDraughtCEMadmin
Player
p223
(dp224
g11
g12
sg13
(lp225
I1
aI1
aI1
aI2
aI1
aI1
aI1
aI1
aI1
aI1
aI1
aI1
aI1
aI2
aI1
aI1
aI2
aI1
aI1
aI1
aI2
aI1
aI1
aI2
aI1
aI0
aI1
aI0
aI1
aI2
aI2
aI2
aI0
aI2
aI1
aI1
aI1
aI1
aI0
aI1
aI1
aI0
aI1
aI1
aI0
aI2
aI1
aI2
aI2
aI2
aI1
aI0
aI1
aI1
aI2
aI1
aI1
aI1
aI1
aI1
aI1
aI0
aI1
aI1
aI1
aI1
aI0
aI0
aI2
aI1
aI0
aI1
aI0
asg15
(lp226
I1
aI1
aI1
aI2
aI1
aI1
aI1
aI1
aI1
aI1
aI1
aI1
aI1
aI2
aI1
aI1
aI2
aI1
aI1
aI1
aI2
aI1
aI1
aI2
aI1
aI0
aI1
aI0
aI1
aI2
aI2
aI2
aI0
aI2
aI1
aI1
aI1
aI1
aI0
aI1
aI1
aI0
aI1
aI1
aI0
aI2
aI1
aI2
aI2
aI2
aI1
aI0
aI1
aI1
aI2
aI1
aI1
aI1
aI1
aI1
aI1
aI0
aI1
aI1
aI1
aI1
aI0
aI0
aI2
aI1
aI0
aI1
aI0
asg17
I00
sg18
F1.0410958904109588
sg19
F-1.3763038778075043
sg20
I375
sg21
I36
sg22
(lp227
I3
aI51
aI19
aI96
aI66
asg24
I76
sg25
I0
sg26
(lp228
I86
aI74
aI25
aI26
aI24
aI97
aI25
aI92
aI76
aI65
aI30
aI12
aI91
aI4
aI78
aI14
aI56
aI97
aI96
aI9
aI93
aI30
aI2
aI22
aI46
aI46
aI64
aI86
aI31
aI3
aI81
aI49
aI63
aI52
aI2
aI40
aI3
aI3
aI90
aI97
aI64
aI93
aI3
aI0
aI2
aI59
aI19
aI97
aI26
aI9
aI20
aI65
aI16
aI96
aI29
aI52
aI63
aI20
aI15
aI96
aI20
aI52
aI53
aI83
aI83
aI27
aI90
aI53
aI3
aI51
aI19
aI96
aI66
asg28
(lp229
I67
aI67
aI69
aI67
aI70
aI77
aI67
aI72
aI78
aI77
aI68
aI73
aI79
aI77
aI78
asg30
F1.0821513955742341
sg31
I452
sg32
F1028.8439162035568
sg33
F1056.0744011038244
sg34
I229
sbsg35
g36
sg37
(iDraughtCEMadmin
Player
p230
(dp231
g11
g12
sg13
(lp232
I1
aI1
aI1
aI1
aI2
aI2
aI1
aI1
aI1
aI1
aI1
aI0
aI1
aI0
aI1
aI2
aI1
aI1
aI0
aI1
aI2
aI2
aI2
aI2
aI0
aI0
aI1
aI1
aI1
aI1
aI1
aI2
aI1
aI2
aI1
aI1
aI0
aI1
aI1
aI2
aI0
aI0
aI1
aI2
aI2
aI1
aI0
aI1
aI1
aI1
aI1
aI1
aI1
aI0
aI1
aI1
aI0
aI1
aI1
aI1
aI1
aI1
aI1
aI2
aI2
aI1
aI1
aI0
aI2
aI2
aI2
aI0
aI2
asg15
(lp233
I1
aI1
aI1
aI1
aI2
aI2
aI1
aI1
aI1
aI1
aI1
aI0
aI1
aI0
aI1
aI2
aI1
aI1
aI0
aI1
aI2
aI2
aI2
aI2
aI0
aI0
aI1
aI1
aI1
aI1
aI1
aI2
aI1
aI2
aI1
aI1
aI0
aI1
aI1
aI2
aI0
aI0
aI1
aI2
aI2
aI1
aI0
aI1
aI1
aI1
aI1
aI1
aI1
aI0
aI1
aI1
aI0
aI1
aI1
aI1
aI1
aI1
aI1
aI2
aI2
aI1
aI1
aI0
aI2
aI2
aI2
aI0
aI2
asg17
I00
sg18
F1.0684931506849316
sg19
F1.5569796505968954
sg20
I395
sg21
I66
sg22
(lp234
I90
aI40
aI57
aI62
aI36
asg24
I78
sg25
I0
sg26
(lp235
I16
aI41
aI11
aI12
aI92
aI6
aI99
aI10
aI64
aI22
aI2
aI83
aI81
aI31
aI99
aI60
aI78
aI71
aI91
aI37
aI69
aI6
aI12
aI97
aI24
aI56
aI45
aI10
aI68
aI57
aI71
aI98
aI93
aI59
aI64
aI97
aI87
aI1
aI62
aI55
aI93
aI57
aI72
aI79
aI33
aI16
aI75
aI22
aI69
aI8
aI57
aI30
aI32
aI11
aI11
aI19
aI27
aI55
aI84
aI40
aI15
aI83
aI0
aI18
aI53
aI10
aI19
aI62
aI90
aI40
aI57
aI62
aI36
asg28
(lp236
I75
aI77
aI76
aI79
aI77
aI74
aI81
aI78
aI76
aI78
aI83
aI79
aI77
aI80
aI76
asg30
F1.0248885483347543
sg31
I471
sg32
F1029.0642428178596
sg33
F1039.2701759624877
sg34
I238
sbsba(iDraughtCEMadmin
Table
p237
(dp238
g8
(iDraughtCEMadmin
Player
p239
(dp240
g11
g12
sg13
(lp241
I1
aI1
aI1
aI1
aI2
aI0
aI1
aI1
aI1
aI0
aI0
aI2
aI1
aI1
aI2
aI1
aI1
aI1
aI1
aI1
aI2
aI2
aI1
aI1
aI2
aI1
aI1
aI1
aI0
aI1
aI1
aI2
aI1
aI2
aI0
aI1
aI2
aI0
aI1
aI1
aI1
aI2
aI0
aI2
aI0
aI1
aI0
aI1
aI1
aI2
aI1
aI1
aI1
aI1
aI1
aI1
aI1
aI1
aI2
aI1
aI2
aI1
aI2
aI2
aI1
aI0
aI0
aI0
aI0
aI2
aI0
aI2
aI1
asg15
(lp242
I1
aI1
aI1
aI1
aI2
aI0
aI1
aI1
aI1
aI0
aI0
aI2
aI1
aI1
aI2
aI1
aI1
aI1
aI1
aI1
aI2
aI2
aI1
aI1
aI2
aI1
aI1
aI1
aI0
aI1
aI1
aI2
aI1
aI2
aI0
aI1
aI2
aI0
aI1
aI1
aI1
aI2
aI0
aI2
aI0
aI1
aI0
aI1
aI1
aI2
aI1
aI1
aI1
aI1
aI1
aI1
aI1
aI1
aI2
aI1
aI2
aI1
aI2
aI2
aI1
aI0
aI0
aI0
aI0
aI2
aI0
aI2
aI1
asg17
I00
sg18
F1.0547945205479452
sg19
F0.040951494226715117
sg20
I381
sg21
I57
sg22
(lp243
I51
aI93
aI66
aI7
aI18
asg24
I77
sg25
I0
sg26
(lp244
I7
aI8
aI75
aI98
aI49
aI12
aI58
aI23
aI50
aI14
aI3
aI74
aI65
aI7
aI70
aI42
aI31
aI16
aI52
aI38
aI16
aI78
aI45
aI8
aI98
aI47
aI15
aI49
aI33
aI66
aI28
aI42
aI62
aI7
aI83
aI15
aI78
aI99
aI19
aI15
aI75
aI66
aI60
aI26
aI53
aI7
aI97
aI45
aI20
aI83
aI66
aI19
aI23
aI68
aI68
aI99
aI23
aI27
aI50
aI9
aI63
aI65
aI23
aI1
aI99
aI40
aI27
aI33
aI51
aI93
aI66
aI7
aI18
asg28
(lp245
I68
aI69
aI76
aI70
aI76
aI76
aI72
aI77
aI76
aI74
aI73
aI77
aI78
aI76
aI77
asg30
F1.0549812752068985
sg31
I458
sg32
F1023.0912185592582
sg33
F1042.2539051112178
sg34
I235
sbsg35
g36
sg37
(iDraughtCEMadmin
Player
p246
(dp247
g11
g12
sg13
(lp248
I2
aI0
aI0
aI2
aI1
aI1
aI2
aI1
aI0
aI1
aI2
aI1
aI1
aI1
aI2
aI0
aI2
aI1
aI1
aI1
aI1
aI0
aI1
aI2
aI1
aI1
aI1
aI1
aI0
aI1
aI1
aI1
aI1
aI1
aI2
aI0
aI2
aI0
aI2
aI1
aI2
aI2
aI1
aI2
aI1
aI1
aI1
aI1
aI1
aI1
aI1
aI1
aI2
aI0
aI2
aI1
aI1
aI0
aI1
aI1
aI1
aI2
aI0
aI0
aI1
aI0
aI1
aI1
aI2
aI1
aI1
aI1
aI1
asg15
(lp249
I2
aI0
aI0
aI2
aI1
aI1
aI2
aI1
aI0
aI1
aI2
aI1
aI1
aI1
aI2
aI0
aI2
aI1
aI1
aI1
aI1
aI0
aI1
aI2
aI1
aI1
aI1
aI1
aI0
aI1
aI1
aI1
aI1
aI1
aI2
aI0
aI2
aI0
aI2
aI1
aI2
aI2
aI1
aI2
aI1
aI1
aI1
aI1
aI1
aI1
aI1
aI1
aI2
aI0
aI2
aI1
aI1
aI0
aI1
aI1
aI1
aI2
aI0
aI0
aI1
aI0
aI1
aI1
aI2
aI1
aI1
aI1
aI1
asg17
I00
sg18
F1.0547945205479452
sg19
F-0.065472084842826919
sg20
I381
sg21
I18
sg22
(lp250
I31
aI86
aI96
aI97
aI57
asg24
I77
sg25
I0
sg26
(lp251
I68
aI59
aI53
aI74
aI1
aI67
aI82
aI73
aI2
aI49
aI87
aI8
aI35
aI82
aI0
aI68
aI77
aI86
aI73
aI58
aI59
aI40
aI15
aI55
aI44
aI44
aI14
aI8
aI59
aI7
aI84
aI13
aI14
aI31
aI67
aI33
aI79
aI74
aI31
aI22
aI55
aI75
aI87
aI67
aI30
aI53
aI15
aI32
aI55
aI3
aI97
aI62
aI79
aI99
aI3
aI75
aI90
aI5
aI59
aI32
aI62
aI7
aI40
aI66
aI86
aI16
aI6
aI19
aI31
aI86
aI96
aI97
aI57
asg28
(lp252
I76
aI77
aI66
aI78
aI68
aI76
aI79
aI69
aI77
aI76
aI80
aI70
aI77
aI77
aI77
asg30
F1.0580346086466512
sg31
I391
sg32
F1014.8008591819763
sg33
F1034.9213579455616
sg34
I235
sbsba(iDraughtCEMadmin
Table
p253
(dp254
g8
(iDraughtCEMadmin
Player
p255
(dp256
g11
g12
sg13
(lp257
I1
aI1
aI2
aI0
aI1
aI0
aI1
aI1
aI1
aI2
aI1
aI1
aI1
aI2
aI1
aI1
aI1
aI1
aI0
aI0
aI2
aI1
aI2
aI1
aI2
aI1
aI1
aI1
aI1
aI1
aI1
aI1
aI1
aI0
aI0
aI1
aI0
aI1
aI1
aI1
aI0
aI1
aI1
aI1
aI2
aI1
aI2
aI1
aI1
aI2
aI0
aI2
aI1
aI2
aI1
aI1
aI1
aI1
aI2
aI1
aI0
aI2
aI0
aI2
aI1
aI1
aI1
aI1
aI1
aI1
aI1
aI1
aI1
asg15
(lp258
I1
aI1
aI2
aI0
aI1
aI0
aI1
aI1
aI1
aI2
aI1
aI1
aI1
aI2
aI1
aI1
aI1
aI1
aI0
aI0
aI2
aI1
aI2
aI1
aI2
aI1
aI1
aI1
aI1
aI1
aI1
aI1
aI1
aI0
aI0
aI1
aI0
aI1
aI1
aI1
aI0
aI1
aI1
aI1
aI2
aI1
aI2
aI1
aI1
aI2
aI0
aI2
aI1
aI2
aI1
aI1
aI1
aI1
aI2
aI1
aI0
aI2
aI0
aI2
aI1
aI1
aI1
aI1
aI1
aI1
aI1
aI1
aI1
asg17
I00
sg18
F1.0410958904109588
sg19
F1.2257046154564024
sg20
I397
sg21
I10
sg22
(lp259
I52
aI64
aI6
aI83
aI97
asg24
I76
sg25
I0
sg26
(lp260
I60
aI99
aI52
aI62
aI33
aI16
aI23
aI66
aI70
aI56
aI98
aI50
aI37
aI2
aI71
aI47
aI90
aI5
aI44
aI4
aI60
aI31
aI6
aI14
aI54
aI95
aI93
aI66
aI55
aI61
aI13
aI58
aI19
aI50
aI53
aI68
aI90
aI97
aI71
aI1
aI14
aI12
aI53
aI22
aI67
aI87
aI0
aI46
aI30
aI30
aI96
aI9
aI6
aI16
aI20
aI22
aI6
aI15
aI65
aI68
aI27
aI61
aI63
aI90
aI5
aI66
aI62
aI65
aI52
aI64
aI6
aI83
aI97
asg28
(lp261
I81
aI83
aI82
aI83
aI84
aI73
aI85
aI86
aI73
aI74
aI86
aI86
aI74
aI74
aI77
asg30
F1.0074449945849575
sg31
I397
sg32
F1023.6437998074011
sg33
F1027.4562082682935
sg34
I238
sbsg35
g36
sg37
(iDraughtCEMadmin
Player
p262
(dp263
g11
g12
sg13
(lp264
I1
aI2
aI0
aI1
aI2
aI1
aI2
aI0
aI2
aI2
aI1
aI2
aI1
aI0
aI1
aI2
aI1
aI1
aI1
aI1
aI1
aI2
aI0
aI0
aI0
aI1
aI2
aI2
aI2
aI1
aI0
aI1
aI1
aI1
aI1
aI1
aI1
aI1
aI2
aI1
aI1
aI1
aI2
aI0
aI0
aI0
aI2
aI0
aI2
aI2
aI1
aI1
aI2
aI0
aI1
aI2
aI0
aI1
aI0
aI1
aI0
aI1
aI1
aI1
aI1
aI1
aI0
aI2
aI1
aI1
aI2
aI1
aI1
asg15
(lp265
I1
aI2
aI0
aI1
aI2
aI1
aI2
aI0
aI2
aI2
aI1
aI2
aI1
aI0
aI1
aI2
aI1
aI1
aI1
aI1
aI1
aI2
aI0
aI0
aI0
aI1
aI2
aI2
aI2
aI1
aI0
aI1
aI1
aI1
aI1
aI1
aI1
aI1
aI2
aI1
aI1
aI1
aI2
aI0
aI0
aI0
aI2
aI0
aI2
aI2
aI1
aI1
aI2
aI0
aI1
aI2
aI0
aI1
aI0
aI1
aI0
aI1
aI1
aI1
aI1
aI1
aI0
aI2
aI1
aI1
aI2
aI1
aI1
asg17
I00
sg18
F1.0547945205479452
sg19
F-0.34462346829668605
sg20
I397
sg21
I97
sg22
(lp266
I64
aI11
aI59
aI18
aI10
asg24
I77
sg25
I0
sg26
(lp267
I47
aI9
aI94
aI89
aI60
aI36
aI74
aI99
aI32
aI46
aI20
aI62
aI61
aI49
aI62
aI94
aI36
aI51
aI24
aI11
aI65
aI66
aI61
aI71
aI7
aI68
aI30
aI63
aI52
aI96
aI16
aI65
aI23
aI90
aI66
aI70
aI10
aI33
aI36
aI65
aI30
aI1
aI31
aI32
aI62
aI33
aI57
aI36
aI78
aI68
aI18
aI5
aI2
aI3
aI51
aI16
aI52
aI53
aI0
aI51
aI23
aI19
aI79
aI40
aI20
aI62
aI2
aI99
aI64
aI11
aI59
aI18
aI10
asg28
(lp268
I81
aI82
aI79
aI84
aI79
aI73
aI86
aI80
aI75
aI76
aI86
aI81
aI77
aI77
aI76
asg30
F1.0660382663683168
sg31
I477
sg32
F1042.2154200449834
sg33
F1064.8482812596535
sg34
I238
sbsba(iDraughtCEMadmin
Table
p269
(dp270
g8
(iDraughtCEMadmin
Player
p271
(dp272
g11
g12
sg13
(lp273
I2
aI0
aI2
aI1
aI2
aI1
aI1
aI0
aI1
aI1
aI1
aI2
aI2
aI2
aI1
aI1
aI1
aI1
aI0
aI2
aI1
aI1
aI1
aI2
aI1
aI0
aI0
aI2
aI0
aI2
aI1
aI1
aI1
aI2
aI2
aI1
aI1
aI1
aI1
aI0
aI1
aI1
aI0
aI2
aI1
aI1
aI1
aI1
aI1
aI0
aI1
aI1
aI1
aI1
aI0
aI1
aI0
aI1
aI1
aI1
aI0
aI1
aI1
aI2
aI0
aI1
aI1
aI2
aI0
aI0
aI2
aI2
aI0
asg15
(lp274
I2
aI0
aI2
aI1
aI2
aI1
aI1
aI0
aI1
aI1
aI1
aI2
aI2
aI2
aI1
aI1
aI1
aI1
aI0
aI2
aI1
aI1
aI1
aI2
aI1
aI0
aI0
aI2
aI0
aI2
aI1
aI1
aI1
aI2
aI2
aI1
aI1
aI1
aI1
aI0
aI1
aI1
aI0
aI2
aI1
aI1
aI1
aI1
aI1
aI0
aI1
aI1
aI1
aI1
aI0
aI1
aI0
aI1
aI1
aI1
aI0
aI1
aI1
aI2
aI0
aI1
aI1
aI2
aI0
aI0
aI2
aI2
aI0
asg17
I00
sg18
F1.0136986301369864
sg19
F-0.7691633002611753
sg20
I384
sg21
I30
sg22
(lp275
I50
aI90
aI15
aI79
aI59
asg24
I74
sg25
I0
sg26
(lp276
I80
aI64
aI17
aI27
aI2
aI62
aI98
aI89
aI16
aI85
aI36
aI77
aI92
aI28
aI94
aI63
aI20
aI22
aI81
aI72
aI68
aI36
aI84
aI93
aI99
aI55
aI23
aI45
aI97
aI53
aI99
aI99
aI23
aI15
aI63
aI20
aI96
aI46
aI50
aI20
aI97
aI81
aI1
aI18
aI2
aI53
aI16
aI10
aI10
aI63
aI66
aI15
aI81
aI9
aI31
aI99
aI19
aI90
aI90
aI59
aI15
aI60
aI53
aI24
aI15
aI29
aI59
aI0
aI50
aI90
aI15
aI79
aI59
asg28
(lp277
I76
aI78
aI77
aI78
aI79
aI70
aI79
aI81
aI70
aI73
aI79
aI83
aI71
aI74
aI77
asg30
F1.037860521577425
sg31
I528
sg32
F1032.2222461556401
sg33
F1044.6134658579906
sg34
I231
sbsg35
g36
sg37
(iDraughtCEMadmin
Player
p278
(dp279
g11
g12
sg13
(lp280
I1
aI2
aI1
aI2
aI1
aI1
aI1
aI0
aI2
aI0
aI1
aI1
aI1
aI1
aI2
aI1
aI1
aI1
aI2
aI0
aI1
aI0
aI1
aI1
aI2
aI2
aI1
aI0
aI2
aI1
aI1
aI2
aI0
aI0
aI1
aI1
aI2
aI1
aI2
aI1
aI1
aI1
aI1
aI1
aI0
aI0
aI1
aI2
aI0
aI0
aI1
aI1
aI1
aI0
aI1
aI1
aI1
aI2
aI1
aI2
aI2
aI1
aI1
aI0
aI1
aI1
aI1
aI1
aI2
aI1
aI0
aI2
aI2
asg15
(lp281
I1
aI2
aI1
aI2
aI1
aI1
aI1
aI0
aI2
aI0
aI1
aI1
aI1
aI1
aI2
aI1
aI1
aI1
aI2
aI0
aI1
aI0
aI1
aI1
aI2
aI2
aI1
aI0
aI2
aI1
aI1
aI2
aI0
aI0
aI1
aI1
aI2
aI1
aI2
aI1
aI1
aI1
aI1
aI1
aI0
aI0
aI1
aI2
aI0
aI0
aI1
aI1
aI1
aI0
aI1
aI1
aI1
aI2
aI1
aI2
aI2
aI1
aI1
aI0
aI1
aI1
aI1
aI1
aI2
aI1
aI0
aI2
aI2
asg17
I00
sg18
F1.0547945205479452
sg19
F0.77404489466464388
sg20
I383
sg21
I59
sg22
(lp282
I24
aI31
aI97
aI6
aI30
asg24
I77
sg25
I0
sg26
(lp283
I9
aI18
aI27
aI78
aI40
aI23
aI21
aI51
aI77
aI5
aI40
aI11
aI80
aI91
aI53
aI79
aI14
aI65
aI89
aI27
aI18
aI90
aI23
aI5
aI85
aI60
aI65
aI11
aI18
aI19
aI12
aI47
aI79
aI66
aI46
aI24
aI28
aI78
aI32
aI63
aI33
aI3
aI22
aI36
aI24
aI9
aI49
aI20
aI31
aI6
aI24
aI64
aI16
aI3
aI0
aI70
aI18
aI7
aI30
aI6
aI96
aI52
aI40
aI83
aI61
aI0
aI30
aI29
aI24
aI31
aI97
aI6
aI30
asg28
(lp284
I75
aI76
aI77
aI77
aI78
aI75
aI78
aI79
aI76
aI73
aI78
aI80
aI77
aI74
aI74
asg30
F1.0339236311828803
sg31
I537
sg32
F1031.4121368065062
sg33
F1043.9769827545244
sg34
I230
sbsba(iDraughtCEMadmin
Table
p285
(dp286
g8
(iDraughtCEMadmin
Player
p287
(dp288
g11
g12
sg13
(lp289
I1
aI1
aI2
aI1
aI1
aI1
aI1
aI2
aI1
aI1
aI1
aI2
aI0
aI2
aI2
aI1
aI1
aI1
aI1
aI2
aI2
aI1
aI0
aI0
aI0
aI1
aI1
aI1
aI2
aI2
aI1
aI1
aI2
aI0
aI2
aI2
aI1
aI1
aI1
aI2
aI0
aI2
aI2
aI2
aI0
aI0
aI1
aI2
aI0
aI0
aI0
aI1
aI0
aI0
aI1
aI1
aI0
aI1
aI0
aI0
aI2
aI1
aI1
aI1
aI1
aI1
aI1
aI1
aI1
aI1
aI1
aI1
aI0
asg15
(lp290
I1
aI1
aI2
aI1
aI1
aI1
aI1
aI2
aI1
aI1
aI1
aI2
aI0
aI2
aI2
aI1
aI1
aI1
aI1
aI2
aI2
aI1
aI0
aI0
aI0
aI1
aI1
aI1
aI2
aI2
aI1
aI1
aI2
aI0
aI2
aI2
aI1
aI1
aI1
aI2
aI0
aI2
aI2
aI2
aI0
aI0
aI1
aI2
aI0
aI0
aI0
aI1
aI0
aI0
aI1
aI1
aI0
aI1
aI0
aI0
aI2
aI1
aI1
aI1
aI1
aI1
aI1
aI1
aI1
aI1
aI1
aI1
aI0
asg17
I00
sg18
F1.0136986301369864
sg19
F-1.6173394378725108
sg20
I384
sg21
I83
sg22
(lp291
I33
aI24
aI79
aI10
aI7
asg24
I74
sg25
I0
sg26
(lp292
I33
aI93
aI31
aI88
aI77
aI47
aI3
aI25
aI23
aI2
aI33
aI66
aI53
aI1
aI68
aI20
aI22
aI63
aI3
aI53
aI20
aI94
aI62
aI90
aI33
aI77
aI67
aI0
aI49
aI23
aI26
aI3
aI64
aI79
aI57
aI2
aI45
aI68
aI84
aI94
aI90
aI31
aI29
aI94
aI93
aI90
aI11
aI79
aI23
aI57
aI75
aI52
aI63
aI86
aI70
aI7
aI53
aI2
aI94
aI52
aI3
aI66
aI61
aI36
aI36
aI59
aI99
aI79
aI33
aI24
aI79
aI10
aI7
asg28
(lp293
I75
aI76
aI76
aI78
aI77
aI73
aI79
aI78
aI73
aI75
aI80
aI78
aI74
aI76
aI76
asg30
F1.0622106567207947
sg31
I458
sg32
F1044.2175110989788
sg33
F1064.2423160398314
sg34
I231
sbsg35
g36
sg37
(iDraughtCEMadmin
Player
p294
(dp295
g11
g12
sg13
(lp296
I1
aI2
aI0
aI2
aI1
aI0
aI2
aI1
aI0
aI1
aI1
aI1
aI2
aI1
aI1
aI1
aI2
aI1
aI0
aI0
aI2
aI1
aI0
aI2
aI2
aI1
aI0
aI0
aI2
aI1
aI1
aI2
aI2
aI0
aI1
aI2
aI0
aI1
aI1
aI0
aI2
aI0
aI2
aI1
aI2
aI1
aI2
aI1
aI1
aI1
aI1
aI0
aI2
aI2
aI0
aI1
aI1
aI2
aI2
aI0
aI1
aI0
aI1
aI2
aI1
aI0
aI0
aI1
aI0
aI1
aI2
aI0
aI2
asg15
(lp297
I1
aI2
aI0
aI2
aI1
aI0
aI2
aI1
aI0
aI1
aI1
aI1
aI2
aI1
aI1
aI1
aI2
aI1
aI0
aI0
aI2
aI1
aI0
aI2
aI2
aI1
aI0
aI0
aI2
aI1
aI1
aI2
aI2
aI0
aI1
aI2
aI0
aI1
aI1
aI0
aI2
aI0
aI2
aI1
aI2
aI1
aI2
aI1
aI1
aI1
aI1
aI0
aI2
aI2
aI0
aI1
aI1
aI2
aI2
aI0
aI1
aI0
aI1
aI2
aI1
aI0
aI0
aI1
aI0
aI1
aI2
aI0
aI2
asg17
I00
sg18
F1.0410958904109588
sg19
F0.029076210878110943
sg20
I390
sg21
I7
sg22
(lp298
I5
aI27
aI65
aI57
aI83
asg24
I76
sg25
I0
sg26
(lp299
I57
aI95
aI8
aI25
aI90
aI72
aI43
aI39
aI33
aI99
aI49
aI46
aI78
aI57
aI40
aI50
aI72
aI8
aI26
aI89
aI77
aI23
aI8
aI56
aI95
aI58
aI97
aI5
aI99
aI18
aI63
aI84
aI24
aI57
aI33
aI31
aI6
aI76
aI24
aI45
aI46
aI61
aI20
aI74
aI23
aI57
aI33
aI63
aI68
aI12
aI62
aI63
aI19
aI46
aI1
aI83
aI24
aI99
aI51
aI59
aI84
aI18
aI31
aI32
aI51
aI84
aI33
aI6
aI5
aI27
aI65
aI57
aI83
asg28
(lp300
I78
aI80
aI77
aI82
aI79
aI72
aI82
aI79
aI73
aI76
aI83
aI81
aI75
aI77
aI74
asg30
F1.0418623864318211
sg31
I473
sg32
F1019.6806153678493
sg33
F1034.2626794699465
sg34
I235
sbsba(iDraughtCEMadmin
Table
p301
(dp302
g8
(iDraughtCEMadmin
Player
p303
(dp304
g11
g12
sg13
(lp305
I2
aI1
aI1
aI2
aI0
aI0
aI2
aI1
aI1
aI0
aI0
aI1
aI1
aI1
aI1
aI1
aI1
aI2
aI2
aI1
aI1
aI0
aI0
aI1
aI1
aI0
aI0
aI2
aI1
aI1
aI1
aI1
aI1
aI1
aI1
aI2
aI2
aI1
aI2
aI1
aI1
aI2
aI1
aI2
aI1
aI0
aI1
aI1
aI1
aI0
aI1
aI1
aI1
aI1
aI1
aI2
aI1
aI1
aI2
aI1
aI1
aI1
aI2
aI1
aI1
aI1
aI1
aI1
aI0
aI0
aI1
aI0
aI1
asg15
(lp306
I2
aI1
aI1
aI2
aI0
aI0
aI2
aI1
aI1
aI0
aI0
aI1
aI1
aI1
aI1
aI1
aI1
aI2
aI2
aI1
aI1
aI0
aI0
aI1
aI1
aI0
aI0
aI2
aI1
aI1
aI1
aI1
aI1
aI1
aI1
aI2
aI2
aI1
aI2
aI1
aI1
aI2
aI1
aI2
aI1
aI0
aI1
aI1
aI1
aI0
aI1
aI1
aI1
aI1
aI1
aI2
aI1
aI1
aI2
aI1
aI1
aI1
aI2
aI1
aI1
aI1
aI1
aI1
aI0
aI0
aI1
aI0
aI1
asg17
I00
sg18
F1.0136986301369864
sg19
F-0.091807834156247742
sg20
I379
sg21
I6
sg22
(lp307
I32
aI20
aI10
aI59
aI79
asg24
I74
sg25
I0
sg26
(lp308
I56
aI53
aI24
aI47
aI5
aI66
aI4
aI37
aI52
aI78
aI60
aI84
aI8
aI64
aI31
aI81
aI96
aI98
aI22
aI74
aI45
aI66
aI10
aI71
aI2
aI40
aI70
aI58
aI48
aI41
aI93
aI75
aI12
aI27
aI48
aI74
aI7
aI52
aI3
aI96
aI24
aI67
aI94
aI72
aI61
aI33
aI45
aI23
aI90
aI94
aI3
aI59
aI10
aI52
aI40
aI32
aI10
aI1
aI20
aI46
aI79
aI59
aI19
aI94
aI32
aI65
aI18
aI7
aI32
aI20
aI10
aI59
aI79
asg28
(lp309
I68
aI68
aI78
aI68
aI80
aI74
aI70
aI80
aI75
aI75
aI71
aI81
aI76
aI77
aI74
asg30
F1.0183806992700561
sg31
I453
sg32
F1026.6055714623169
sg33
F1032.9005919697231
sg34
I230
sbsg35
g36
sg37
(iDraughtCEMadmin
Player
p310
(dp311
g11
g12
sg13
(lp312
I1
aI2
aI2
aI0
aI2
aI1
aI1
aI1
aI2
aI0
aI1
aI2
aI1
aI0
aI1
aI1
aI2
aI1
aI2
aI2
aI1
aI1
aI1
aI2
aI1
aI1
aI2
aI1
aI1
aI0
aI1
aI0
aI2
aI2
aI2
aI2
aI0
aI1
aI1
aI0
aI1
aI1
aI1
aI0
aI1
aI1
aI2
aI0
aI1
aI1
aI1
aI0
aI0
aI1
aI0
aI2
aI1
aI1
aI0
aI1
aI1
aI1
aI1
aI1
aI1
aI0
aI2
aI1
aI1
aI0
aI1
aI0
aI1
asg15
(lp313
I1
aI2
aI2
aI0
aI2
aI1
aI1
aI1
aI2
aI0
aI1
aI2
aI1
aI0
aI1
aI1
aI2
aI1
aI2
aI2
aI1
aI1
aI1
aI2
aI1
aI1
aI2
aI1
aI1
aI0
aI1
aI0
aI2
aI2
aI2
aI2
aI0
aI1
aI1
aI0
aI1
aI1
aI1
aI0
aI1
aI1
aI2
aI0
aI1
aI1
aI1
aI0
aI0
aI1
aI0
aI2
aI1
aI1
aI0
aI1
aI1
aI1
aI1
aI1
aI1
aI0
aI2
aI1
aI1
aI0
aI1
aI0
aI1
asg17
I00
sg18
F1.0136986301369864
sg19
F-1.7204780005236444
sg20
I389
sg21
I79
sg22
(lp314
I94
aI52
aI83
aI30
aI6
asg24
I74
sg25
I0
sg26
(lp315
I45
aI0
aI76
aI86
aI33
aI60
aI85
aI0
aI15
aI53
aI69
aI27
aI12
aI59
aI24
aI0
aI27
aI54
aI94
aI52
aI20
aI63
aI55
aI69
aI40
aI62
aI94
aI14
aI68
aI59
aI83
aI20
aI84
aI11
aI18
aI24
aI94
aI84
aI11
aI84
aI63
aI46
aI66
aI52
aI32
aI64
aI83
aI70
aI96
aI16
aI84
aI18
aI9
aI55
aI2
aI93
aI40
aI14
aI64
aI6
aI96
aI97
aI64
aI52
aI55
aI29
aI15
aI83
aI94
aI52
aI83
aI30
aI6
asg28
(lp316
I81
aI81
aI83
aI81
aI83
aI73
aI81
aI85
aI74
aI74
aI81
aI86
aI74
aI74
aI74
asg30
F1.0651671796524058
sg31
I549
sg32
F1047.8490087606726
sg33
F1068.8020607653855
sg34
I230
sbsba(iDraughtCEMadmin
Table
p317
(dp318
g8
(iDraughtCEMadmin
Player
p319
(dp320
g11
g12
sg13
(lp321
I0
aI1
aI1
aI1
aI1
aI1
aI1
aI1
aI1
aI1
aI1
aI0
aI1
aI0
aI1
aI1
aI2
aI1
aI1
aI2
aI2
aI2
aI1
aI0
aI1
aI2
aI1
aI2
aI1
aI1
aI1
aI1
aI2
aI1
aI0
aI2
aI1
aI1
aI1
aI0
aI0
aI1
aI1
aI1
aI0
aI1
aI1
aI0
aI1
aI1
aI2
aI0
aI0
aI1
aI2
aI1
aI2
aI1
aI0
aI2
aI1
aI2
aI1
aI1
aI2
aI2
aI0
aI1
aI1
aI0
aI1
aI1
aI0
asg15
(lp322
I0
aI1
aI1
aI1
aI1
aI1
aI1
aI1
aI1
aI1
aI1
aI0
aI1
aI0
aI1
aI1
aI2
aI1
aI1
aI2
aI2
aI2
aI1
aI0
aI1
aI2
aI1
aI2
aI1
aI1
aI1
aI1
aI2
aI1
aI0
aI2
aI1
aI1
aI1
aI0
aI0
aI1
aI1
aI1
aI0
aI1
aI1
aI0
aI1
aI1
aI2
aI0
aI0
aI1
aI2
aI1
aI2
aI1
aI0
aI2
aI1
aI2
aI1
aI1
aI2
aI2
aI0
aI1
aI1
aI0
aI1
aI1
aI0
asg17
I00
sg18
F1.0
sg19
F0.1717192383227257
sg20
I384
sg21
I55
sg22
(lp323
I93
aI23
aI29
aI61
aI65
asg24
I73
sg25
I0
sg26
(lp324
I5
aI26
aI44
aI9
aI75
aI80
aI1
aI81
aI70
aI92
aI69
aI51
aI65
aI87
aI26
aI21
aI69
aI40
aI8
aI47
aI99
aI51
aI18
aI79
aI30
aI3
aI12
aI10
aI45
aI87
aI76
aI68
aI64
aI50
aI77
aI71
aI75
aI66
aI18
aI31
aI93
aI93
aI70
aI81
aI26
aI29
aI60
aI18
aI5
aI46
aI45
aI86
aI15
aI79
aI9
aI29
aI66
aI16
aI93
aI14
aI32
aI0
aI15
aI84
aI16
aI79
aI96
aI61
aI93
aI23
aI29
aI61
aI65
asg28
(lp325
I76
aI76
aI78
aI76
aI80
aI72
aI77
aI82
aI73
aI73
aI77
aI84
aI73
aI75
aI75
asg30
F0.99730614779191218
sg31
I307
sg32
F1019.5045112689978
sg33
F1018.7402881240931
sg34
I228
sbsg35
g36
sg37
(iDraughtCEMadmin
Player
p326
(dp327
g11
g12
sg13
(lp328
I1
aI1
aI2
aI0
aI0
aI1
aI2
aI2
aI1
aI1
aI1
aI1
aI1
aI2
aI2
aI1
aI0
aI1
aI2
aI2
aI1
aI0
aI1
aI1
aI0
aI2
aI1
aI0
aI2
aI1
aI2
aI1
aI1
aI1
aI1
aI2
aI2
aI1
aI1
aI0
aI1
aI1
aI1
aI2
aI1
aI2
aI1
aI1
aI2
aI1
aI0
aI2
aI1
aI2
aI0
aI1
aI0
aI1
aI0
aI0
aI1
aI1
aI1
aI0
aI1
aI1
aI0
aI1
aI1
aI0
aI0
aI1
aI2
asg15
(lp329
I1
aI1
aI2
aI0
aI0
aI1
aI2
aI2
aI1
aI1
aI1
aI1
aI1
aI2
aI2
aI1
aI0
aI1
aI2
aI2
aI1
aI0
aI1
aI1
aI0
aI2
aI1
aI0
aI2
aI1
aI2
aI1
aI1
aI1
aI1
aI2
aI2
aI1
aI1
aI0
aI1
aI1
aI1
aI2
aI1
aI2
aI1
aI1
aI2
aI1
aI0
aI2
aI1
aI2
aI0
aI1
aI0
aI1
aI0
aI0
aI1
aI1
aI1
aI0
aI1
aI1
aI0
aI1
aI1
aI0
aI0
aI1
aI2
asg17
I00
sg18
F1.0273972602739727
sg19
F-1.6844476744811119
sg20
I386
sg21
I65
sg22
(lp330
I20
aI5
aI7
aI29
aI55
asg24
I75
sg25
I0
sg26
(lp331
I15
aI32
aI21
aI29
aI54
aI4
aI72
aI12
aI68
aI36
aI11
aI41
aI57
aI55
aI15
aI62
aI52
aI59
aI85
aI13
aI22
aI97
aI49
aI11
aI29
aI41
aI59
aI15
aI14
aI93
aI47
aI32
aI97
aI90
aI23
aI62
aI44
aI96
aI84
aI40
aI97
aI64
aI9
aI68
aI40
aI5
aI20
aI90
aI9
aI33
aI90
aI36
aI94
aI29
aI23
aI64
aI11
aI75
aI10
aI19
aI33
aI57
aI24
aI0
aI9
aI6
aI63
aI10
aI20
aI5
aI7
aI29
aI55
asg28
(lp332
I76
aI78
aI80
aI80
aI82
aI74
aI80
aI82
aI74
aI73
aI81
aI83
aI76
aI73
aI73
asg30
F1.0775582632719822
sg31
I316
sg32
F1033.7763051827799
sg33
F1059.0925842531099
sg34
I230
sbsba(iDraughtCEMadmin
Table
p333
(dp334
g8
(iDraughtCEMadmin
Player
p335
(dp336
g11
g12
sg13
(lp337
I1
aI0
aI1
aI0
aI1
aI1
aI1
aI2
aI2
aI1
aI2
aI0
aI1
aI1
aI0
aI1
aI1
aI1
aI1
aI2
aI0
aI0
aI1
aI2
aI2
aI1
aI2
aI1
aI2
aI1
aI2
aI1
aI1
aI1
aI1
aI1
aI0
aI0
aI1
aI2
aI1
aI2
aI1
aI1
aI1
aI0
aI1
aI2
aI1
aI1
aI0
aI1
aI2
aI1
aI1
aI1
aI0
aI1
aI2
aI1
aI1
aI0
aI1
aI1
aI1
aI1
aI1
aI1
aI1
aI0
aI1
aI1
aI2
asg15
(lp338
I1
aI0
aI1
aI0
aI1
aI1
aI1
aI2
aI2
aI1
aI2
aI0
aI1
aI1
aI0
aI1
aI1
aI1
aI1
aI2
aI0
aI0
aI1
aI2
aI2
aI1
aI2
aI1
aI2
aI1
aI2
aI1
aI1
aI1
aI1
aI1
aI0
aI0
aI1
aI2
aI1
aI2
aI1
aI1
aI1
aI0
aI1
aI2
aI1
aI1
aI0
aI1
aI2
aI1
aI1
aI1
aI0
aI1
aI2
aI1
aI1
aI0
aI1
aI1
aI1
aI1
aI1
aI1
aI1
aI0
aI1
aI1
aI2
asg17
I00
sg18
F1.0273972602739727
sg19
F0.19055661051362449
sg20
I378
sg21
I61
sg22
(lp339
I27
aI50
aI0
aI55
aI29
asg24
I75
sg25
I0
sg26
(lp340
I11
aI23
aI39
aI54
aI56
aI70
aI54
aI96
aI21
aI75
aI84
aI23
aI97
aI35
aI47
aI9
aI3
aI27
aI84
aI76
aI26
aI74
aI44
aI95
aI97
aI2
aI29
aI81
aI12
aI10
aI41
aI1
aI0
aI19
aI15
aI86
aI71
aI60
aI45
aI51
aI22
aI7
aI78
aI8
aI6
aI15
aI9
aI70
aI94
aI69
aI22
aI96
aI60
aI14
aI8
aI24
aI16
aI23
aI63
aI94
aI99
aI10
aI83
aI27
aI27
aI99
aI59
aI55
aI27
aI50
aI0
aI55
aI29
asg28
(lp341
I76
aI77
aI78
aI79
aI78
aI71
aI79
aI79
aI71
aI73
aI81
aI79
aI72
aI73
aI73
asg30
F1.0237429141703707
sg31
I226
sg32
F1015.0527975487579
sg33
F1023.4940380541354
sg34
I226
sbsg35
g36
sg37
(iDraughtCEMadmin
Player
p342
(dp343
g11
g12
sg13
(lp344
I1
aI2
aI1
aI2
aI0
aI2
aI1
aI1
aI1
aI1
aI1
aI1
aI0
aI1
aI1
aI1
aI0
aI0
aI0
aI2
aI1
aI0
aI0
aI2
aI2
aI2
aI0
aI2
aI2
aI2
aI0
aI0
aI1
aI1
aI1
aI2
aI2
aI2
aI1
aI1
aI1
aI0
aI1
aI0
aI0
aI1
aI1
aI1
aI1
aI2
aI2
aI1
aI1
aI0
aI0
aI1
aI0
aI0
aI2
aI1
aI1
aI2
aI1
aI0
aI2
aI2
aI1
aI1
aI1
aI1
aI1
aI1
aI0
asg15
(lp345
I1
aI2
aI1
aI2
aI0
aI2
aI1
aI1
aI1
aI1
aI1
aI1
aI0
aI1
aI1
aI1
aI0
aI0
aI0
aI2
aI1
aI0
aI0
aI2
aI2
aI2
aI0
aI2
aI2
aI2
aI0
aI0
aI1
aI1
aI1
aI2
aI2
aI2
aI1
aI1
aI1
aI0
aI1
aI0
aI0
aI1
aI1
aI1
aI1
aI2
aI2
aI1
aI1
aI0
aI0
aI1
aI0
aI0
aI2
aI1
aI1
aI2
aI1
aI0
aI2
aI2
aI1
aI1
aI1
aI1
aI1
aI1
aI0
asg17
I00
sg18
F1.0
sg19
F0.23283391414875043
sg20
I382
sg21
I29
sg22
(lp346
I53
aI33
aI55
aI65
aI61
asg24
I73
sg25
I0
sg26
(lp347
I58
aI78
aI65
aI42
aI41
aI98
aI62
aI23
aI90
aI15
aI27
aI92
aI16
aI90
aI8
aI99
aI14
aI90
aI53
aI16
aI71
aI38
aI65
aI22
aI61
aI56
aI78
aI8
aI42
aI11
aI8
aI68
aI96
aI14
aI63
aI28
aI23
aI53
aI15
aI62
aI74
aI83
aI9
aI60
aI27
aI55
aI51
aI64
aI64
aI45
aI27
aI33
aI65
aI36
aI0
aI55
aI32
aI31
aI27
aI22
aI86
aI1
aI23
aI2
aI0
aI79
aI30
aI59
aI53
aI33
aI55
aI65
aI61
asg28
(lp348
I75
aI77
aI76
aI77
aI78
aI72
aI78
aI79
aI73
aI73
aI79
aI80
aI73
aI75
aI75
asg30
F0.99554714893715002
sg31
I462
sg32
F1025.2422458186836
sg33
F1023.9279905913448
sg34
I230
sbsba(iDraughtCEMadmin
Table
p349
(dp350
g8
(iDraughtCEMadmin
Player
p351
(dp352
g11
g12
sg13
(lp353
I1
aI1
aI1
aI1
aI1
aI2
aI0
aI2
aI0
aI2
aI1
aI1
aI1
aI0
aI1
aI0
aI2
aI1
aI1
aI2
aI2
aI0
aI1
aI1
aI1
aI1
aI2
aI2
aI0
aI2
aI0
aI1
aI1
aI1
aI0
aI1
aI0
aI2
aI1
aI0
aI1
aI0
aI1
aI1
aI1
aI2
aI1
aI1
aI1
aI0
aI1
aI2
aI1
aI1
aI1
aI2
aI0
aI0
aI0
aI1
aI2
aI1
aI1
aI1
aI1
aI1
aI0
aI1
aI2
aI1
aI1
aI2
aI1
asg15
(lp354
I1
aI1
aI1
aI1
aI1
aI2
aI0
aI2
aI0
aI2
aI1
aI1
aI1
aI0
aI1
aI0
aI2
aI1
aI1
aI2
aI2
aI0
aI1
aI1
aI1
aI1
aI2
aI2
aI0
aI2
aI0
aI1
aI1
aI1
aI0
aI1
aI0
aI2
aI1
aI0
aI1
aI0
aI1
aI1
aI1
aI2
aI1
aI1
aI1
aI0
aI1
aI2
aI1
aI1
aI1
aI2
aI0
aI0
aI0
aI1
aI2
aI1
aI1
aI1
aI1
aI1
aI0
aI1
aI2
aI1
aI1
aI2
aI1
asg17
I00
sg18
F1.0
sg19
F0.62096945173395857
sg20
I370
sg21
I51
sg22
(lp355
I57
aI36
aI99
aI0
aI1
asg24
I73
sg25
I0
sg26
(lp356
I5
aI89
aI22
aI52
aI59
aI41
aI58
aI16
aI40
aI55
aI74
aI27
aI23
aI97
aI43
aI33
aI93
aI55
aI87
aI62
aI99
aI67
aI75
aI49
aI71
aI22
aI9
aI5
aI16
aI94
aI40
aI68
aI61
aI87
aI71
aI5
aI16
aI27
aI29
aI62
aI2
aI99
aI81
aI63
aI97
aI7
aI97
aI81
aI63
aI7
aI22
aI60
aI1
aI3
aI3
aI60
aI3
aI3
aI1
aI1
aI1
aI32
aI32
aI32
aI9
aI57
aI36
aI99
aI45
aI0
aI0
aI0
aI1
asg28
(lp357
I72
aI74
aI75
aI74
aI75
aI70
aI76
aI76
aI71
aI71
aI77
aI76
aI72
aI72
aI73
asg30
F0.98437695199571962
sg31
I370
sg32
F1024.9821394832286
sg33
F1020.1746644176229
sg34
I223
sbsg35
g36
sg37
(iDraughtCEMadmin
Player
p358
(dp359
g11
S'tournament rating'
p360
sg13
(lp361
I1
aI1
aI1
aI1
aI1
aI2
aI2
aI1
aI1
aI1
aI1
aI0
aI0
aI0
aI1
aI1
aI1
aI2
aI1
aI1
aI0
aI0
aI2
aI0
aI2
aI2
aI1
aI0
aI1
aI0
aI1
aI1
aI1
aI1
aI0
aI2
aI2
aI1
aI1
aI1
aI1
aI2
aI0
aI0
aI1
aI1
aI1
aI1
aI1
aI1
aI1
aI1
aI2
aI2
aI2
aI1
aI2
aI1
aI1
aI1
aI0
aI1
aI1
aI0
aI0
aI1
aI2
aI1
aI1
aI0
aI1
aI2
aI1
asg15
(lp362
I1
aI1
aI1
aI1
aI1
aI2
aI2
aI1
aI1
aI1
aI1
aI0
aI0
aI0
aI1
aI1
aI1
aI2
aI1
aI1
aI0
aI0
aI2
aI0
aI2
aI2
aI1
aI0
aI1
aI0
aI1
aI1
aI1
aI1
aI0
aI2
aI2
aI1
aI1
aI1
aI1
aI2
aI0
aI0
aI1
aI1
aI1
aI1
aI1
aI1
aI1
aI1
aI2
aI2
aI2
aI1
aI2
aI1
aI1
aI1
aI0
aI1
aI1
aI0
aI0
aI1
aI2
aI1
aI1
aI0
aI1
aI2
aI1
asg17
I00
sg18
F1.0
sg19
F0.41101367060376792
sg20
I374
sg21
I1
sg22
(lp363
I16
aI2
aI45
aI15
aI51
asg24
I73
sg25
I0
sg26
(lp364
I89
aI98
aI67
aI18
aI76
aI35
aI55
aI24
aI33
aI63
aI76
aI74
aI83
aI9
aI41
aI70
aI88
aI62
aI44
aI23
aI77
aI28
aI9
aI49
aI93
aI24
aI9
aI50
aI96
aI23
aI61
aI27
aI12
aI87
aI76
aI9
aI66
aI69
aI10
aI97
aI30
aI12
aI67
aI71
aI63
aI26
aI78
aI68
aI2
aI7
aI96
aI6
aI5
aI75
aI45
aI14
aI29
aI57
aI31
aI32
aI51
aI51
aI51
aI3
aI51
aI16
aI2
aI45
aI15
aI15
aI99
aI15
aI51
asg28
(lp365
I74
aI75
aI77
aI76
aI77
aI70
aI77
aI78
aI71
aI70
aI79
aI79
aI72
aI71
aI73
asg30
F0.99041898704977438
sg31
I374
sg32
F1015.4167523410688
sg33
F1012.4988793056349
sg34
I225
sbsba(iDraughtCEMadmin
Table
p366
(dp367
g8
(iDraughtCEMadmin
Player
p368
(dp369
g11
g12
sg13
(lp370
I1
aI0
aI2
aI1
aI1
aI1
aI2
aI1
aI2
aI1
aI2
aI0
aI1
aI2
aI2
aI2
aI1
aI1
aI0
aI1
aI1
aI1
aI1
aI0
aI1
aI0
aI0
aI1
aI1
aI1
aI2
aI1
aI1
aI1
aI1
aI1
aI1
aI1
aI1
aI1
aI1
aI2
aI2
aI1
aI2
aI0
aI0
aI1
aI2
aI0
aI2
aI0
aI1
aI0
aI1
aI1
aI0
aI1
aI0
aI1
aI1
aI0
aI0
aI2
aI1
aI1
aI1
aI1
aI0
aI1
aI2
aI1
aI1
asg15
(lp371
I1
aI0
aI2
aI1
aI1
aI1
aI2
aI1
aI2
aI1
aI2
aI0
aI1
aI2
aI2
aI2
aI1
aI1
aI0
aI1
aI1
aI1
aI1
aI0
aI1
aI0
aI0
aI1
aI1
aI1
aI2
aI1
aI1
aI1
aI1
aI1
aI1
aI1
aI1
aI1
aI1
aI2
aI2
aI1
aI2
aI0
aI0
aI1
aI2
aI0
aI2
aI0
aI1
aI0
aI1
aI1
aI0
aI1
aI0
aI1
aI1
aI0
aI0
aI2
aI1
aI1
aI1
aI1
aI0
aI1
aI2
aI1
aI1
asg17
I00
sg18
F0.98630136986301364
sg19
F-0.62545763071568672
sg20
I374
sg21
I22
sg22
(lp372
I2
aI62
aI32
aI45
aI99
asg24
I72
sg25
I0
sg26
(lp373
I72
aI52
aI4
aI51
aI78
aI53
aI46
aI26
aI66
aI8
aI63
aI34
aI54
aI86
aI94
aI83
aI30
aI6
aI23
aI65
aI2
aI19
aI36
aI77
aI29
aI26
aI67
aI14
aI86
aI27
aI51
aI46
aI24
aI53
aI13
aI94
aI9
aI18
aI61
aI68
aI69
aI10
aI59
aI50
aI16
aI66
aI8
aI78
aI61
aI64
aI53
aI94
aI94
aI10
aI2
aI75
aI53
aI29
aI81
aI62
aI93
aI51
aI60
aI3
aI3
aI60
aI2
aI62
aI32
aI45
aI0
aI45
aI99
asg28
(lp374
I75
aI77
aI75
aI77
aI76
aI68
aI78
aI78
aI70
aI71
aI79
aI80
aI71
aI72
aI72
asg30
F1.0022617860688106
sg31
I365
sg32
F1027.7678443264942
sg33
F1027.9282130029355
sg34
I226
sbsg35
g36
sg37
(iDraughtCEMadmin
Player
p375
(dp376
g11
g12
sg13
(lp377
I1
aI1
aI1
aI1
aI0
aI1
aI1
aI2
aI1
aI1
aI2
aI1
aI0
aI1
aI1
aI1
aI1
aI2
aI0
aI1
aI1
aI0
aI2
aI1
aI1
aI2
aI0
aI1
aI0
aI1
aI1
aI1
aI1
aI2
aI0
aI1
aI1
aI2
aI0
aI1
aI2
aI0
aI1
aI0
aI1
aI2
aI1
aI1
aI2
aI0
aI1
aI2
aI2
aI2
aI2
aI1
aI2
aI0
aI1
aI1
aI1
aI1
aI1
aI0
aI1
aI1
aI1
aI0
aI0
aI0
aI1
aI1
aI1
asg15
(lp378
I1
aI1
aI1
aI1
aI0
aI1
aI1
aI2
aI1
aI1
aI2
aI1
aI0
aI1
aI1
aI1
aI1
aI2
aI0
aI1
aI1
aI0
aI2
aI1
aI1
aI2
aI0
aI1
aI0
aI1
aI1
aI1
aI1
aI2
aI0
aI1
aI1
aI2
aI0
aI1
aI2
aI0
aI1
aI0
aI1
aI2
aI1
aI1
aI2
aI0
aI1
aI2
aI2
aI2
aI2
aI1
aI2
aI0
aI1
aI1
aI1
aI1
aI1
aI0
aI1
aI1
aI1
aI0
aI0
aI0
aI1
aI1
aI1
asg17
I00
sg18
F0.98630136986301364
sg19
F-0.77613416760693787
sg20
I378
sg21
I99
sg22
(lp379
I23
aI53
aI51
aI86
aI22
asg24
I72
sg25
I0
sg26
(lp380
I49
aI10
aI85
aI84
aI89
aI28
aI66
aI97
aI11
aI7
aI48
aI85
aI28
aI86
aI66
aI23
aI42
aI29
aI95
aI63
aI50
aI55
aI41
aI74
aI30
aI90
aI51
aI78
aI7
aI47
aI30
aI30
aI78
aI74
aI16
aI26
aI75
aI57
aI46
aI14
aI44
aI70
aI16
aI62
aI68
aI87
aI3
aI32
aI16
aI51
aI46
aI70
aI18
aI84
aI57
aI30
aI7
aI46
aI5
aI61
aI63
aI20
aI57
aI61
aI83
aI97
aI23
aI53
aI51
aI1
aI45
aI86
aI22
asg28
(lp381
I76
aI78
aI77
aI80
aI77
aI70
aI82
aI78
aI72
aI69
aI84
aI79
aI73
aI70
aI72
asg30
F1.0065985135022848
sg31
I306
sg32
F1019.1142624223191
sg33
F1020.6307199307815
sg34
I225
sbsba(iDraughtCEMadmin
Table
p382
(dp383
g8
(iDraughtCEMadmin
Player
p384
(dp385
g11
g12
sg13
(lp386
I1
aI2
aI0
aI1
aI1
aI2
aI1
aI1
aI0
aI1
aI1
aI1
aI1
aI1
aI1
aI1
aI2
aI1
aI1
aI1
aI1
aI1
aI1
aI1
aI2
aI1
aI1
aI0
aI1
aI1
aI2
aI0
aI1
aI0
aI2
aI1
aI1
aI2
aI1
aI2
aI1
aI0
aI1
aI1
aI2
aI0
aI1
aI1
aI0
aI1
aI0
aI2
aI1
aI1
aI1
aI2
aI1
aI0
aI0
aI2
aI2
aI2
aI1
aI1
aI0
aI0
aI0
aI1
aI0
aI1
aI1
aI1
aI1
asg15
(lp387
I1
aI2
aI0
aI1
aI1
aI2
aI1
aI1
aI0
aI1
aI1
aI1
aI1
aI1
aI1
aI1
aI2
aI1
aI1
aI1
aI1
aI1
aI1
aI1
aI2
aI1
aI1
aI0
aI1
aI1
aI2
aI0
aI1
aI0
aI2
aI1
aI1
aI2
aI1
aI2
aI1
aI0
aI1
aI1
aI2
aI0
aI1
aI1
aI0
aI1
aI0
aI2
aI1
aI1
aI1
aI2
aI1
aI0
aI0
aI2
aI2
aI2
aI1
aI1
aI0
aI0
aI0
aI1
aI0
aI1
aI1
aI1
aI1
asg17
I00
sg18
F0.98630136986301364
sg19
F-0.5800226433512421
sg20
I375
sg21
I45
sg22
(lp388
I75
aI16
aI1
aI22
aI0
asg24
I72
sg25
I0
sg26
(lp389
I95
aI91
aI79
aI19
aI17
aI56
aI60
aI75
aI42
aI39
aI60
aI53
aI69
aI56
aI43
aI92
aI6
aI12
aI57
aI31
aI21
aI70
aI66
aI30
aI46
aI55
aI62
aI87
aI31
aI24
aI72
aI32
aI83
aI11
aI61
aI7
aI53
aI32
aI77
aI94
aI96
aI75
aI6
aI57
aI11
aI93
aI29
aI55
aI31
aI75
aI75
aI86
aI19
aI96
aI40
aI63
aI1
aI5
aI64
aI19
aI3
aI75
aI16
aI1
aI51
aI22
aI15
aI15
aI99
aI0
aI0
aI22
aI0
asg28
(lp390
I75
aI76
aI75
aI77
aI76
aI70
aI78
aI77
aI72
aI71
aI79
aI79
aI73
aI72
aI72
asg30
F1.0009540655786289
sg31
I381
sg32
F1017.2579522946214
sg33
F1017.0094060847825
sg34
I226
sbsg35
g36
sg37
(iDraughtCEMadmin
Player
p391
(dp392
g11
g12
sg13
(lp393
I1
aI1
aI2
aI2
aI1
aI1
aI1
aI1
aI2
aI2
aI1
aI1
aI0
aI0
aI0
aI2
aI2
aI1
aI1
aI0
aI0
aI1
aI2
aI1
aI0
aI2
aI2
aI1
aI1
aI0
aI2
aI1
aI1
aI0
aI1
aI0
aI0
aI0
aI0
aI1
aI1
aI2
aI1
aI1
aI2
aI0
aI0
aI1
aI1
aI2
aI1
aI1
aI2
aI1
aI1
aI1
aI1
aI2
aI2
aI2
aI0
aI0
aI1
aI2
aI0
aI0
aI2
aI0
aI1
aI1
aI1
aI0
aI1
asg15
(lp394
I1
aI1
aI2
aI2
aI1
aI1
aI1
aI1
aI2
aI2
aI1
aI1
aI0
aI0
aI0
aI2
aI2
aI1
aI1
aI0
aI0
aI1
aI2
aI1
aI0
aI2
aI2
aI1
aI1
aI0
aI2
aI1
aI1
aI0
aI1
aI0
aI0
aI0
aI0
aI1
aI1
aI2
aI1
aI1
aI2
aI0
aI0
aI1
aI1
aI2
aI1
aI1
aI2
aI1
aI1
aI1
aI1
aI2
aI2
aI2
aI0
aI0
aI1
aI2
aI0
aI0
aI2
aI0
aI1
aI1
aI1
aI0
aI1
asg17
I00
sg18
F0.98630136986301364
sg19
F-0.63568269211345985
sg20
I378
sg21
I0
sg22
(lp395
I84
aI75
aI61
aI51
aI45
asg24
I72
sg25
I0
sg26
(lp396
I50
aI87
aI96
aI79
aI86
aI93
aI9
aI27
aI79
aI94
aI20
aI77
aI84
aI18
aI5
aI79
aI72
aI77
aI49
aI8
aI24
aI81
aI47
aI21
aI83
aI19
aI90
aI58
aI12
aI61
aI93
aI9
aI60
aI64
aI44
aI3
aI27
aI8
aI36
aI68
aI46
aI10
aI67
aI75
aI53
aI81
aI86
aI9
aI62
aI62
aI29
aI59
aI97
aI84
aI2
aI55
aI66
aI65
aI90
aI29
aI59
aI30
aI84
aI75
aI61
aI51
aI45
aI51
aI22
aI45
aI15
aI51
aI45
asg28
(lp397
I74
aI75
aI76
aI76
aI77
aI72
aI77
aI78
aI73
aI72
aI79
aI79
aI75
aI73
aI72
asg30
F1.0025560852832349
sg31
I526
sg32
F1029.9951545191711
sg33
F1030.2475487481922
sg34
I227
sbsba(iDraughtCEMadmin
Table
p398
(dp399
g8
(iDraughtCEMadmin
Player
p400
(dp401
g11
g12
sg13
(lp402
I1
aI2
aI2
aI1
aI1
aI1
aI1
aI0
aI2
aI2
aI2
aI0
aI1
aI1
aI0
aI1
aI1
aI1
aI1
aI2
aI1
aI1
aI1
aI0
aI2
aI1
aI2
aI2
aI1
aI2
aI0
aI1
aI1
aI0
aI0
aI1
aI1
aI1
aI1
aI0
aI0
aI1
aI0
aI0
aI1
aI0
aI1
aI2
aI1
aI0
aI2
aI1
aI2
aI2
aI1
aI0
aI0
aI0
aI1
aI0
aI2
aI0
aI1
aI1
aI1
aI1
aI1
aI1
aI0
aI1
aI2
aI1
aI1
asg15
(lp403
I1
aI2
aI2
aI1
aI1
aI1
aI1
aI0
aI2
aI2
aI2
aI0
aI1
aI1
aI0
aI1
aI1
aI1
aI1
aI2
aI1
aI1
aI1
aI0
aI2
aI1
aI2
aI2
aI1
aI2
aI0
aI1
aI1
aI0
aI0
aI1
aI1
aI1
aI1
aI0
aI0
aI1
aI0
aI0
aI1
aI0
aI1
aI2
aI1
aI0
aI2
aI1
aI2
aI2
aI1
aI0
aI0
aI0
aI1
aI0
aI2
aI0
aI1
aI1
aI1
aI1
aI1
aI1
aI0
aI1
aI2
aI1
aI1
asg17
I00
sg18
F0.95890410958904104
sg19
F-0.77716642245667344
sg20
I368
sg21
I86
sg22
(lp404
I62
aI18
aI3
aI99
aI32
asg24
I70
sg25
I0
sg26
(lp405
I36
aI98
aI35
aI46
aI0
aI79
aI49
aI52
aI47
aI64
aI5
aI94
aI42
aI99
aI22
aI11
aI40
aI18
aI9
aI98
aI64
aI75
aI40
aI19
aI13
aI76
aI8
aI36
aI20
aI62
aI22
aI5
aI52
aI2
aI19
aI61
aI8
aI12
aI19
aI62
aI24
aI63
aI20
aI12
aI26
aI77
aI76
aI16
aI75
aI67
aI0
aI55
aI83
aI93
aI45
aI3
aI24
aI24
aI9
aI29
aI68
aI33
aI18
aI9
aI60
aI60
aI62
aI18
aI3
aI99
aI32
aI15
aI32
asg28
(lp406
I74
aI75
aI74
aI76
aI75
aI67
aI78
aI76
aI67
aI71
aI80
aI77
aI68
aI72
aI71
asg30
F0.97964771167369613
sg31
I513
sg32
F1029.1119966793228
sg33
F1021.2627444814329
sg34
I221
sbsg35
g36
sg37
(iDraughtCEMadmin
Player
p407
(dp408
g11
g12
sg13
(lp409
I2
aI1
aI1
aI2
aI1
aI1
aI0
aI1
aI0
aI0
aI1
aI1
aI2
aI1
aI1
aI2
aI1
aI0
aI1
aI0
aI0
aI1
aI2
aI1
aI0
aI1
aI1
aI1
aI2
aI0
aI2
aI1
aI2
aI1
aI2
aI1
aI2
aI2
aI0
aI2
aI0
aI2
aI2
aI2
aI2
aI1
aI0
aI1
aI0
aI1
aI0
aI1
aI1
aI0
aI0
aI0
aI0
aI2
aI1
aI1
aI1
aI0
aI1
aI0
aI1
aI1
aI1
aI1
aI2
aI0
aI0
aI2
aI1
asg15
(lp410
I2
aI1
aI1
aI2
aI1
aI1
aI0
aI1
aI0
aI0
aI1
aI1
aI2
aI1
aI1
aI2
aI1
aI0
aI1
aI0
aI0
aI1
aI2
aI1
aI0
aI1
aI1
aI1
aI2
aI0
aI2
aI1
aI2
aI1
aI2
aI1
aI2
aI2
aI0
aI2
aI0
aI2
aI2
aI2
aI2
aI1
aI0
aI1
aI0
aI1
aI0
aI1
aI1
aI0
aI0
aI0
aI0
aI2
aI1
aI1
aI1
aI0
aI1
aI0
aI1
aI1
aI1
aI1
aI2
aI0
aI0
aI2
aI1
asg17
I00
sg18
F0.9726027397260274
sg19
F-0.85503651243477641
sg20
I363
sg21
I32
sg22
(lp411
I6
aI63
aI22
aI3
aI86
asg24
I71
sg25
I0
sg26
(lp412
I82
aI65
aI90
aI72
aI94
aI8
aI2
aI19
aI97
aI11
aI38
aI28
aI68
aI63
aI85
aI19
aI11
aI35
aI20
aI9
aI72
aI88
aI69
aI64
aI68
aI96
aI48
aI70
aI72
aI65
aI56
aI96
aI81
aI45
aI20
aI41
aI59
aI24
aI23
aI45
aI8
aI14
aI97
aI79
aI11
aI18
aI99
aI26
aI5
aI53
aI66
aI8
aI64
aI6
aI96
aI29
aI93
aI18
aI55
aI7
aI6
aI1
aI60
aI9
aI51
aI51
aI51
aI6
aI63
aI22
aI3
aI86
aI86
asg28
(lp413
I72
aI72
aI76
aI73
aI77
aI70
aI73
aI78
aI71
aI67
aI74
aI79
aI72
aI68
aI70
asg30
F0.99537792469543696
sg31
I505
sg32
F1021.5749867971492
sg33
F1019.1140654090622
sg34
I217
sbsba(iDraughtCEMadmin
Table
p414
(dp415
g8
(iDraughtCEMadmin
Player
p416
(dp417
g11
g360
sg13
(lp418
I1
aI0
aI1
aI0
aI1
aI2
aI1
aI1
aI1
aI1
aI2
aI0
aI1
aI0
aI1
aI2
aI1
aI2
aI1
aI2
aI1
aI0
aI2
aI1
aI1
aI1
aI1
aI2
aI1
aI0
aI0
aI1
aI0
aI2
aI1
aI1
aI1
aI1
aI0
aI1
aI1
aI1
aI1
aI1
aI1
aI0
aI2
aI1
aI2
aI1
aI1
aI1
aI1
aI2
aI0
aI1
aI2
aI1
aI1
aI1
aI0
aI1
aI0
aI0
aI2
aI1
aI1
aI1
aI0
aI0
aI0
aI0
aI1
asg15
(lp419
I1
aI0
aI1
aI0
aI1
aI2
aI1
aI1
aI1
aI1
aI2
aI0
aI1
aI0
aI1
aI2
aI1
aI2
aI1
aI2
aI1
aI0
aI2
aI1
aI1
aI1
aI1
aI2
aI1
aI0
aI0
aI1
aI0
aI2
aI1
aI1
aI1
aI1
aI0
aI1
aI1
aI1
aI1
aI1
aI1
aI0
aI2
aI1
aI2
aI1
aI1
aI1
aI1
aI2
aI0
aI1
aI2
aI1
aI1
aI1
aI0
aI1
aI0
aI0
aI2
aI1
aI1
aI1
aI0
aI0
aI0
aI0
aI1
asg17
I00
sg18
F0.93150684931506844
sg19
F-1.4942925514711534
sg20
I367
sg21
I3
sg22
(lp420
I36
aI19
aI86
aI32
aI15
asg24
I68
sg25
I0
sg26
(lp421
I53
aI90
aI92
aI49
aI31
aI83
aI85
aI26
aI9
aI57
aI67
aI52
aI62
aI58
aI48
aI17
aI61
aI70
aI83
aI17
aI46
aI26
aI77
aI70
aI92
aI55
aI74
aI5
aI36
aI11
aI83
aI53
aI71
aI70
aI49
aI36
aI36
aI6
aI0
aI71
aI36
aI59
aI46
aI12
aI99
aI53
aI18
aI6
aI70
aI97
aI18
aI59
aI86
aI62
aI16
aI83
aI14
aI2
aI96
aI60
aI51
aI51
aI51
aI51
aI22
aI1
aI22
aI45
aI36
aI19
aI86
aI32
aI15
asg28
(lp422
I74
aI75
aI75
aI75
aI77
aI68
aI76
aI78
aI69
aI70
aI76
aI79
aI70
aI71
aI71
asg30
F0.97330837248387392
sg31
I217
sg32
F1017.5570149365129
sg33
F1006.7868978997534
sg34
I220
sbsg35
g36
sg37
(iDraughtCEMadmin
Player
p423
(dp424
g11
g12
sg13
(lp425
I1
aI2
aI0
aI1
aI2
aI1
aI1
aI2
aI0
aI2
aI1
aI1
aI1
aI1
aI0
aI0
aI1
aI2
aI0
aI1
aI1
aI2
aI1
aI2
aI1
aI2
aI1
aI2
aI1
aI1
aI1
aI1
aI1
aI0
aI1
aI1
aI1
aI1
aI1
aI1
aI1
aI0
aI2
aI2
aI1
aI2
aI1
aI0
aI1
aI1
aI0
aI2
aI1
aI1
aI1
aI0
aI0
aI1
aI1
aI0
aI1
aI1
aI1
aI1
aI1
aI1
aI0
aI1
aI1
aI1
aI0
aI0
aI1
asg15
(lp426
I1
aI2
aI0
aI1
aI2
aI1
aI1
aI2
aI0
aI2
aI1
aI1
aI1
aI1
aI0
aI0
aI1
aI2
aI0
aI1
aI1
aI2
aI1
aI2
aI1
aI2
aI1
aI2
aI1
aI1
aI1
aI1
aI1
aI0
aI1
aI1
aI1
aI1
aI1
aI1
aI1
aI0
aI2
aI2
aI1
aI2
aI1
aI0
aI1
aI1
aI0
aI2
aI1
aI1
aI1
aI0
aI0
aI1
aI1
aI0
aI1
aI1
aI1
aI1
aI1
aI1
aI0
aI1
aI1
aI1
aI0
aI0
aI1
asg17
I00
sg18
F0.9726027397260274
sg19
F-1.4552271830908694
sg20
I373
sg21
I15
sg22
(lp427
I63
aI84
aI30
aI1
aI3
asg24
I71
sg25
I0
sg26
(lp428
I65
aI38
aI5
aI13
aI27
aI81
aI91
aI72
aI79
aI29
aI89
aI65
aI2
aI23
aI42
aI87
aI94
aI24
aI33
aI18
aI78
aI42
aI91
aI57
aI65
aI63
aI2
aI16
aI56
aI90
aI30
aI61
aI57
aI27
aI26
aI57
aI29
aI16
aI11
aI49
aI75
aI61
aI18
aI2
aI67
aI64
aI24
aI30
aI55
aI81
aI33
aI31
aI10
aI36
aI20
aI66
aI30
aI55
aI16
aI84
aI30
aI79
aI63
aI84
aI30
aI1
aI1
aI45
aI45
aI0
aI1
aI86
aI3
asg28
(lp429
I74
aI76
aI75
aI77
aI76
aI72
aI78
aI77
aI74
aI72
aI79
aI79
aI74
aI73
aI68
asg30
F1.0126520927590756
sg31
I446
sg32
F1030.4038794347102
sg33
F1033.3446740825279
sg34
I226
sbsbasS'P3'
p430
(lp431
(lp432
a(lp433
a(lp434
a(lp435
a(lp436
a(lp437
a(lp438
a(lp439
a(lp440
a(lp441
a(lp442
a(lp443
a(lp444
a(lp445
a(lp446
a(lp447
a(lp448
a(lp449
a(lp450
a(lp451
a(lp452
a(lp453
a(lp454
a(lp455
a(lp456
a(lp457
a(lp458
a(lp459
a(lp460
a(lp461
a(lp462
a(lp463
a(lp464
a(lp465
a(lp466
a(lp467
a(lp468
a(lp469
a(lp470
a(lp471
a(lp472
a(lp473
a(lp474
a(lp475
a(lp476
a(lp477
a(lp478
a(lp479
a(lp480
a(lp481
a(lp482
a(lp483
a(lp484
a(lp485
a(lp486
a(lp487
a(lp488
a(lp489
a(lp490
a(lp491
a(lp492
a(lp493
a(lp494
a(lp495
a(lp496
a(lp497
a(lp498
a(lp499
a(lp500
a(lp501
a(lp502
a(lp503
a(lp504
a(lp505
a(lp506
a(lp507
a(lp508
a(lp509
a(lp510
a(lp511
a(lp512
a(lp513
a(lp514
a(lp515
a(lp516
a(lp517
a(lp518
a(lp519
a(lp520
a(lp521
a(lp522
a(lp523
a(lp524
a(lp525
a(lp526
a(lp527
a(lp528
a(lp529
a(lp530
a(lp531
asS'P8'
p532
(lp533
(lp534
a(lp535
a(lp536
a(lp537
a(lp538
a(lp539
a(lp540
a(lp541
a(lp542
a(lp543
a(lp544
a(lp545
a(lp546
a(lp547
a(lp548
a(lp549
a(lp550
a(lp551
a(lp552
a(lp553
a(lp554
a(lp555
a(lp556
a(lp557
a(lp558
a(lp559
a(lp560
a(lp561
a(lp562
a(lp563
a(lp564
a(lp565
a(lp566
a(lp567
a(lp568
a(lp569
a(lp570
a(lp571
a(lp572
a(lp573
a(lp574
a(lp575
a(lp576
a(lp577
a(lp578
a(lp579
a(lp580
a(lp581
a(lp582
a(lp583
a(lp584
a(lp585
a(lp586
a(lp587
a(lp588
a(lp589
a(lp590
a(lp591
a(lp592
a(lp593
a(lp594
a(lp595
a(lp596
a(lp597
a(lp598
a(lp599
a(lp600
a(lp601
a(lp602
a(lp603
a(lp604
a(lp605
a(lp606
a(lp607
a(lp608
a(lp609
a(lp610
a(lp611
a(lp612
a(lp613
a(lp614
a(lp615
a(lp616
a(lp617
a(lp618
a(lp619
a(lp620
a(lp621
a(lp622
a(lp623
a(lp624
a(lp625
a(lp626
a(lp627
a(lp628
a(lp629
a(lp630
a(lp631
a(lp632
a(lp633
asS'Player_on_id'
p634
(lp635
g391
ag358
ag166
ag416
a(iDraughtCEMadmin
Player
p636
(dp637
g11
S'tournament rating'
p638
sg13
(lp639
I0
aI1
aI0
aI0
aI2
aI1
aI0
aI1
aI1
aI0
aI1
aI2
aI1
aI0
aI0
aI1
aI0
aI1
aI1
aI2
aI1
aI0
aI2
aI1
asg15
(lp640
I0
aI1
aI0
aI0
aI2
aI1
aI0
aI1
aI1
aI0
aI1
aI2
aI1
aI0
aI0
aI1
aI0
aI1
aI1
aI2
aI1
aI0
aI2
aI1
asg17
I00
sg18
F0.79166666666666663
sg19
F1.886950518537583
sg20
I123
sg21
I4
sg22
(lp641
I24
aI10
aI17
aI37
aI43
aI35
asg24
I19
sg25
I0
sg26
(lp642
I54
aI11
aI22
aI73
aI43
aI65
aI6
aI41
aI37
aI74
aI25
aI44
aI98
aI36
aI25
aI80
aI82
aI24
aI10
aI17
aI37
aI43
aI39
aI35
asg28
(lp643
I19
aI20
aI19
aI21
aI21
aI16
aI23
aI22
aI17
aI18
aI23
aI24
aI18
aI19
aI15
aI23
aI25
aI19
aI20
aI17
aI19
asg30
F0.738302784789449
sg31
I78
sg32
F931.1379681478644
sg33
F839.93666348102602
sg34
I83
sbag47
ag303
ag294
a(iDraughtCEMadmin
Player
p644
(dp645
g11
g638
sg13
(lp646
I2
aI1
aI2
aI1
aI1
aI1
aI1
aI0
aI2
aI1
aI0
aI1
aI1
aI2
aI1
aI0
aI2
aI1
aI1
aI0
aI1
aI1
aI2
aI1
aI1
aI2
aI0
aI1
aI0
aI0
aI0
aI2
aI1
aI0
aI1
aI0
aI1
aI1
aI1
aI1
aI1
aI0
aI0
aI1
aI0
aI1
aI1
aI2
aI0
aI1
aI0
aI1
aI2
aI2
aI1
aI0
aI1
aI1
asg15
(lp647
I2
aI1
aI2
aI1
aI1
aI1
aI1
aI0
aI2
aI1
aI0
aI1
aI1
aI2
aI1
aI0
aI2
aI1
aI1
aI0
aI1
aI1
aI2
aI1
aI1
aI2
aI0
aI1
aI0
aI0
aI0
aI2
aI1
aI0
aI1
aI0
aI1
aI1
aI1
aI1
aI1
aI0
aI0
aI1
aI0
aI1
aI1
aI2
aI0
aI1
aI0
aI1
aI2
aI2
aI1
aI0
aI1
aI1
asg17
I00
sg18
F0.91379310344827591
sg19
F-0.72196407149921249
sg20
I279
sg21
I8
sg22
(lp648
I32
aI61
aI14
aI49
aI12
asg24
I53
sg25
I0
sg26
(lp649
I58
aI57
aI7
aI20
aI62
aI32
aI71
aI78
aI89
aI62
aI22
aI18
aI6
aI26
aI24
aI64
aI29
aI7
aI70
aI55
aI5
aI0
aI7
aI57
aI41
aI89
aI86
aI18
aI93
aI29
aI40
aI90
aI29
aI49
aI26
aI70
aI86
aI62
aI27
aI71
aI0
aI32
aI61
aI72
aI69
aI49
aI22
aI66
aI69
aI49
aI32
aI61
aI14
aI14
aI49
aI68
aI12
aI12
asg28
(lp650
I56
aI56
aI58
aI56
aI59
aI54
aI56
aI59
aI55
aI50
aI58
aI60
aI56
aI51
aI54
asg30
F0.93318338499006548
sg31
I393
sg32
F1018.5745398019667
sg33
F994.60346644545962
sg34
I169
sba(iDraughtCEMadmin
Player
p651
(dp652
g11
S'tournament rating'
p653
sg13
(lp654
I1
aI0
aI1
aI1
aI2
aI1
aI1
aI0
aI1
aI1
aI0
aI2
aI1
aI1
aI1
aI1
aI0
aI2
aI1
aI1
aI2
aI1
aI0
aI2
aI0
aI1
aI2
aI2
aI1
aI1
aI1
aI2
aI1
aI1
aI1
aI2
aI0
aI1
aI1
aI0
aI1
aI1
aI1
aI1
aI2
aI1
aI1
aI0
aI0
aI0
aI2
aI0
aI0
aI1
aI2
aI1
aI0
aI2
aI0
aI1
aI0
aI1
aI0
aI0
aI1
aI1
aI1
aI1
asg15
(lp655
I1
aI0
aI1
aI1
aI2
aI1
aI1
aI0
aI1
aI1
aI0
aI2
aI1
aI1
aI1
aI1
aI0
aI2
aI1
aI1
aI2
aI1
aI0
aI2
aI0
aI1
aI2
aI2
aI1
aI1
aI1
aI2
aI1
aI1
aI1
aI2
aI0
aI1
aI1
aI0
aI1
aI1
aI1
aI1
aI2
aI1
aI1
aI0
aI0
aI0
aI2
aI0
aI0
aI1
aI2
aI1
aI0
aI2
aI0
aI1
aI0
aI1
aI0
aI0
aI1
aI1
aI1
aI1
asg17
I00
sg18
F0.92647058823529416
sg19
F-1.1726657323639189
sg20
I343
sg21
I9
sg22
(lp656
I93
aI65
aI86
aI32
aI51
asg24
I63
sg25
I0
sg26
(lp657
I59
aI97
aI91
aI55
aI31
aI14
aI0
aI48
aI87
aI3
aI19
aI38
aI24
aI67
aI1
aI61
aI74
aI86
aI36
aI32
aI56
aI78
aI1
aI52
aI19
aI77
aI1
aI26
aI67
aI20
aI89
aI33
aI51
aI0
aI46
aI1
aI47
aI22
aI16
aI31
aI96
aI65
aI50
aI29
aI70
aI61
aI59
aI65
aI36
aI12
aI10
aI0
aI79
aI30
aI55
aI70
aI46
aI53
aI57
aI86
aI81
aI68
aI46
aI93
aI65
aI86
aI32
aI51
asg28
(lp658
I69
aI70
aI69
aI72
aI70
aI63
aI73
aI70
aI64
aI65
aI75
aI71
aI65
aI66
aI66
asg30
F0.95956968142654298
sg31
I338
sg32
F1018.6431688922755
sg33
F1003.4159104835508
sg34
I205
sbag255
ag86
a(iDraughtCEMadmin
Player
p659
(dp660
g11
g638
sg13
(lp661
I1
aI0
aI2
aI1
aI2
aI2
aI2
aI0
aI0
aI1
aI1
aI1
aI1
aI2
aI1
aI0
aI2
aI2
aI1
aI1
aI0
aI1
aI0
aI1
aI1
aI0
aI2
aI0
aI0
aI0
aI1
aI1
aI1
aI1
aI1
aI1
aI1
aI1
aI1
aI1
aI1
aI1
aI1
aI1
aI1
aI1
aI0
aI1
aI2
aI1
aI0
aI1
aI1
aI2
aI0
aI1
aI0
aI1
asg15
(lp662
I1
aI0
aI2
aI1
aI2
aI2
aI2
aI0
aI0
aI1
aI1
aI1
aI1
aI2
aI1
aI0
aI2
aI2
aI1
aI1
aI0
aI1
aI0
aI1
aI1
aI0
aI2
aI0
aI0
aI0
aI1
aI1
aI1
aI1
aI1
aI1
aI1
aI1
aI1
aI1
aI1
aI1
aI1
aI1
aI1
aI1
aI0
aI1
aI2
aI1
aI0
aI1
aI1
aI2
aI0
aI1
aI0
aI1
asg17
I00
sg18
F0.93103448275862066
sg19
F-0.49452405144244271
sg20
I284
sg21
I12
sg22
(lp663
I27
aI24
aI68
aI46
aI8
asg24
I54
sg25
I0
sg26
(lp664
I62
aI19
aI71
aI66
aI81
aI57
aI44
aI65
aI63
aI16
aI71
aI36
aI17
aI48
aI79
aI52
aI47
aI33
aI54
aI96
aI84
aI45
aI66
aI23
aI28
aI54
aI27
aI55
aI61
aI74
aI59
aI0
aI6
aI1
aI69
aI78
aI19
aI86
aI26
aI27
aI10
aI2
aI33
aI86
aI1
aI3
aI77
aI19
aI7
aI9
aI67
aI26
aI27
aI24
aI68
aI46
aI8
aI8
asg28
(lp665
I56
aI57
aI59
aI58
aI60
aI53
aI60
aI61
aI53
aI54
aI61
aI62
aI54
aI54
aI53
asg30
F0.94458321390933186
sg31
I329
sg32
F1014.0166330243139
sg33
F994.24859948729591
sg34
I169
sba(iDraughtCEMadmin
Player
p666
(dp667
g11
g638
sg13
(lp668
I1
aI1
aI1
aI1
aI0
aI1
aI1
aI1
aI1
aI1
aI0
aI2
aI0
aI0
aI1
aI1
aI2
aI1
aI2
aI0
aI1
aI2
aI0
aI1
aI0
aI1
aI1
aI0
aI0
aI1
aI1
aI1
aI1
aI1
aI2
aI2
aI1
aI0
aI1
aI1
aI2
aI2
asg15
(lp669
I1
aI1
aI1
aI1
aI0
aI1
aI1
aI1
aI1
aI1
aI0
aI2
aI0
aI0
aI1
aI1
aI2
aI1
aI2
aI0
aI1
aI2
aI0
aI1
aI0
aI1
aI1
aI0
aI0
aI1
aI1
aI1
aI1
aI1
aI2
aI2
aI1
aI0
aI1
aI1
aI2
aI2
asg17
I00
sg18
F0.95238095238095233
sg19
F1.1574330204988883
sg20
I241
sg21
I13
sg22
(lp670
I22
aI16
aI76
aI47
aI41
aI72
asg24
I40
sg25
I0
sg26
(lp671
I63
aI84
aI33
aI15
aI52
aI93
aI64
aI98
aI81
aI70
aI58
aI33
aI90
aI44
aI87
aI28
aI65
aI48
aI80
aI53
aI98
aI86
aI81
aI89
aI41
aI80
aI21
aI21
aI10
aI18
aI89
aI88
aI56
aI42
aI22
aI16
aI76
aI47
aI28
aI47
aI41
aI72
asg28
(lp672
I39
aI40
aI41
aI41
aI42
aI35
aI42
aI44
aI36
aI35
aI43
aI44
aI37
aI35
aI36
aI45
aI46
aI38
aI36
aI38
aI38
asg30
F0.9196390768052215
sg31
I203
sg32
F992.00798074596378
sg33
F965.18483356147374
sg34
I160
sba(iDraughtCEMadmin
Player
p673
(dp674
g11
g653
sg13
(lp675
I1
aI1
aI2
aI0
aI1
aI1
aI0
aI2
aI1
aI2
aI0
aI0
aI2
aI2
aI2
aI1
aI1
aI2
aI2
aI0
aI2
aI0
aI0
aI1
aI1
aI1
aI1
aI1
aI0
aI1
aI1
aI1
aI1
aI1
aI0
aI0
aI1
aI0
aI2
aI1
aI2
aI0
aI0
aI0
aI0
aI1
aI1
aI0
aI2
aI2
aI0
aI2
aI1
aI1
aI1
aI2
aI1
aI1
aI2
aI2
aI1
aI1
aI2
asg15
(lp676
I1
aI1
aI2
aI0
aI1
aI1
aI0
aI2
aI1
aI2
aI0
aI0
aI2
aI2
aI2
aI1
aI1
aI2
aI2
aI0
aI2
aI0
aI0
aI1
aI1
aI1
aI1
aI1
aI0
aI1
aI1
aI1
aI1
aI1
aI0
aI0
aI1
aI0
aI2
aI1
aI2
aI0
aI0
aI0
aI0
aI1
aI1
aI0
aI2
aI2
aI0
aI2
aI1
aI1
aI1
aI2
aI1
aI1
aI2
aI2
aI1
aI1
aI2
asg17
I00
sg18
F1.0158730158730158
sg19
F1.6746058463958662
sg20
I323
sg21
I14
sg22
(lp677
I79
aI33
aI55
aI1
aI3
asg24
I64
sg25
I0
sg26
(lp678
I64
aI34
aI54
aI42
aI19
aI9
aI31
aI34
aI60
aI57
aI76
aI75
aI23
aI76
aI85
aI36
aI59
aI67
aI29
aI31
aI75
aI62
aI90
aI10
aI48
aI48
aI18
aI93
aI65
aI22
aI79
aI88
aI18
aI53
aI31
aI29
aI93
aI50
aI74
aI99
aI10
aI52
aI32
aI74
aI78
aI68
aI33
aI23
aI78
aI49
aI46
aI61
aI2
aI8
aI46
aI8
aI60
aI81
aI79
aI33
aI55
aI1
aI3
asg28
(lp679
I62
aI63
aI64
aI64
aI65
aI61
aI65
aI66
aI63
aI63
aI66
aI67
aI64
aI64
aI62
asg30
F0.96755269139410782
sg31
I323
sg32
F1016.2637846489253
sg33
F1006.6610820313623
sg34
I195
sbag423
ag207
a(iDraughtCEMadmin
Player
p680
(dp681
g11
g638
sg13
(lp682
I1
aI1
aI0
aI1
aI0
aI1
aI1
aI0
aI2
aI1
aI1
aI2
aI1
aI0
aI1
aI0
aI0
aI1
aI1
aI0
aI1
aI1
aI1
aI1
asg15
(lp683
I1
aI1
aI0
aI1
aI0
aI1
aI1
aI0
aI2
aI1
aI1
aI2
aI1
aI0
aI1
aI0
aI0
aI1
aI1
aI0
aI1
aI1
aI1
aI1
asg17
I00
sg18
F0.79166666666666663
sg19
F0.22791482649990941
sg20
I128
sg21
I17
sg22
(lp684
I67
aI3
aI4
aI25
aI35
aI39
asg24
I19
sg25
I0
sg26
(lp685
I67
aI44
aI30
aI75
aI71
aI56
aI45
aI90
aI73
aI26
aI12
aI77
aI92
aI3
aI26
aI38
aI21
aI67
aI3
aI4
aI25
aI35
aI39
aI39
asg28
(lp686
I20
aI20
aI21
aI20
aI22
aI16
aI21
aI22
aI16
aI17
aI23
aI24
aI18
aI19
aI18
aI25
aI25
aI19
aI21
aI19
aI19
asg30
F0.78331166999281832
sg31
I90
sg32
F956.43423380655747
sg33
F880.16425036805845
sg34
I87
sbag246
ag175
ag79
a(iDraughtCEMadmin
Player
p687
(dp688
g11
g638
sg13
(lp689
I1
aI1
aI0
aI2
aI0
aI2
aI1
aI0
aI0
aI0
aI2
aI0
aI1
aI1
aI1
aI1
aI0
aI0
aI1
aI1
aI1
aI2
aI1
aI1
aI0
aI0
aI1
aI0
aI2
aI1
asg15
(lp690
I1
aI1
aI0
aI2
aI0
aI2
aI1
aI0
aI0
aI0
aI2
aI0
aI1
aI1
aI1
aI1
aI0
aI0
aI1
aI1
aI1
aI2
aI1
aI1
aI0
aI0
aI1
aI0
aI2
aI1
asg17
I00
sg18
F0.80000000000000004
sg19
F0.19527484022424915
sg20
I160
sg21
I21
sg22
(lp691
I45
aI0
aI88
aI85
aI92
aI13
asg24
I24
sg25
I0
sg26
(lp692
I71
aI48
aI65
aI52
aI69
aI25
aI59
aI94
aI61
aI48
aI40
aI75
aI91
aI55
aI43
aI17
aI25
aI46
aI26
aI37
aI43
aI87
aI80
aI45
aI0
aI88
aI85
aI92
aI13
aI13
asg28
(lp693
I27
aI28
aI28
aI29
aI30
aI21
aI29
aI31
aI22
aI24
aI30
aI32
aI23
aI25
aI22
aI31
aI32
aI24
aI25
aI23
aI25
asg30
F0.79279927198076972
sg31
I163
sg32
F967.34212775104652
sg33
F894.49090418902824
sg34
I107
sbag368
ag9
ag150
a(iDraughtCEMadmin
Player
p694
(dp695
g11
g638
sg13
(lp696
I2
aI0
aI1
aI0
aI1
aI0
aI1
aI0
aI0
aI1
aI1
aI1
aI0
aI1
aI0
aI1
aI1
aI2
aI1
aI2
aI0
aI1
aI2
aI2
asg15
(lp697
I2
aI0
aI1
aI0
aI1
aI0
aI1
aI0
aI0
aI1
aI1
aI1
aI0
aI1
aI0
aI1
aI1
aI2
aI1
aI2
aI0
aI1
aI2
aI2
asg17
I00
sg18
F0.875
sg19
F2.0778860761341096
sg20
I121
sg21
I25
sg22
(lp698
I47
aI56
aI87
aI17
aI34
aI54
asg24
I21
sg25
I0
sg26
(lp699
I75
aI63
aI36
aI7
aI34
aI21
aI36
aI83
aI91
aI43
aI4
aI82
aI67
aI50
aI35
aI4
aI82
aI21
aI47
aI56
aI87
aI17
aI34
aI54
asg28
(lp700
I19
aI19
aI19
aI19
aI20
aI18
aI20
aI21
aI18
aI17
aI20
aI23
aI19
aI18
aI18
aI22
aI23
aI20
aI19
aI18
aI19
asg30
F0.8185512323995473
sg31
I82
sg32
F941.85694266048267
sg33
F880.18721797527564
sg34
I81
sba(iDraughtCEMadmin
Player
p701
(dp702
g11
g638
sg13
(lp703
I1
aI1
aI1
aI0
aI1
aI1
aI1
aI1
aI1
aI0
aI1
aI2
aI0
aI0
aI1
aI1
aI2
aI2
aI2
aI1
aI2
aI2
aI1
aI1
aI1
aI1
aI0
aI1
aI1
aI0
aI1
aI1
aI1
aI0
aI1
aI1
aI0
aI1
aI1
aI1
aI0
aI1
aI2
aI0
aI2
aI2
aI1
aI1
aI0
aI1
aI1
aI0
aI1
asg15
(lp704
I1
aI1
aI1
aI0
aI1
aI1
aI1
aI1
aI1
aI0
aI1
aI2
aI0
aI0
aI1
aI1
aI2
aI2
aI2
aI1
aI2
aI2
aI1
aI1
aI1
aI1
aI0
aI1
aI1
aI0
aI1
aI1
aI1
aI0
aI1
aI1
aI0
aI1
aI1
aI1
aI0
aI1
aI2
aI0
aI2
aI2
aI1
aI1
aI0
aI1
aI1
aI0
aI1
asg17
I00
sg18
F0.94339622641509435
sg19
F-0.39015410228940939
sg20
I267
sg21
I26
sg22
(lp705
I36
aI32
aI1
aI68
aI12
asg24
I50
sg25
I0
sg26
(lp706
I76
aI55
aI81
aI36
aI28
aI44
aI96
aI22
aI3
aI98
aI17
aI73
aI5
aI8
aI95
aI55
aI17
aI41
aI7
aI21
aI61
aI3
aI81
aI68
aI89
aI98
aI33
aI22
aI9
aI46
aI83
aI52
aI96
aI67
aI8
aI99
aI52
aI15
aI12
aI77
aI71
aI78
aI23
aI57
aI49
aI86
aI55
aI87
aI36
aI32
aI1
aI68
aI12
asg28
(lp707
I55
aI57
aI54
aI58
aI54
aI49
aI58
aI55
aI50
aI50
aI59
aI56
aI52
aI50
aI50
asg30
F0.95504440332581142
sg31
I217
sg32
F1000.6138986909003
sg33
F984.59403561150509
sg34
I159
sbag118
a(iDraughtCEMadmin
Player
p708
(dp709
g11
g638
sg13
(lp710
I0
aI1
aI1
aI1
aI1
aI1
aI1
aI0
aI0
aI2
aI2
aI1
aI2
aI0
aI1
aI0
aI1
aI1
aI0
aI1
aI2
aI1
aI0
aI1
aI1
aI0
aI1
aI2
aI1
aI1
aI1
aI0
aI1
aI2
aI1
aI1
aI0
aI0
aI1
aI1
aI1
aI0
asg15
(lp711
I0
aI1
aI1
aI1
aI1
aI1
aI1
aI0
aI0
aI2
aI2
aI1
aI2
aI0
aI1
aI0
aI1
aI1
aI0
aI1
aI2
aI1
aI0
aI1
aI1
aI0
aI1
aI2
aI1
aI1
aI1
aI0
aI1
aI2
aI1
aI1
aI0
aI0
aI1
aI1
aI1
aI0
asg17
I00
sg18
F0.8571428571428571
sg19
F-1.0510564163642131
sg20
I238
sg21
I28
sg22
(lp712
I59
aI29
aI47
aI56
aI74
aI41
asg24
I36
sg25
I0
sg26
(lp713
I78
aI34
aI26
aI99
aI90
aI62
aI58
aI37
aI31
aI32
aI99
aI30
aI81
aI31
aI48
aI13
aI2
aI33
aI92
aI58
aI1
aI85
aI12
aI23
aI95
aI54
aI27
aI57
aI46
aI98
aI58
aI78
aI59
aI29
aI47
aI13
aI56
aI74
aI74
aI41
aI76
aI41
asg28
(lp714
I40
aI41
aI41
aI43
aI42
aI34
aI44
aI43
aI35
aI33
aI45
aI44
aI35
aI35
aI37
aI46
aI44
aI36
aI36
aI38
aI38
asg30
F0.88904756930293316
sg31
I192
sg32
F986.59082984707561
sg33
F946.83158759435355
sg34
I159
sbag342
ag271
ag102
ag407
ag95
a(iDraughtCEMadmin
Player
p715
(dp716
g11
g638
sg13
(lp717
I0
aI1
aI1
aI1
aI1
aI2
aI2
aI0
aI1
aI1
aI0
aI1
aI1
aI1
aI0
aI1
aI1
aI1
aI0
aI1
aI0
aI1
aI0
aI0
aI0
aI2
aI2
aI2
aI1
aI1
asg15
(lp718
I0
aI1
aI1
aI1
aI1
aI2
aI2
aI0
aI1
aI1
aI0
aI1
aI1
aI1
aI0
aI1
aI1
aI1
aI0
aI1
aI0
aI1
aI0
aI0
aI0
aI2
aI2
aI2
aI1
aI1
asg17
I00
sg18
F0.8666666666666667
sg19
F0.92973616627614319
sg20
I165
sg21
I34
sg22
(lp719
I67
aI31
aI92
aI60
aI76
aI42
asg24
I26
sg25
I0
sg26
(lp720
I84
aI14
aI70
aI28
aI25
aI92
aI42
aI14
aI75
aI50
aI77
aI92
aI22
aI5
aI96
aI73
aI44
aI92
aI90
aI5
aI88
aI82
aI25
aI43
aI67
aI31
aI92
aI60
aI76
aI42
asg28
(lp721
I27
aI28
aI26
aI29
aI28
aI21
aI29
aI30
aI22
aI23
aI30
aI31
aI22
aI24
aI26
aI31
aI33
aI23
aI25
aI27
aI26
asg30
F0.84190872525306903
sg31
I160
sg32
F964.02213871113292
sg33
F909.56076321464752
sg34
I111
sba(iDraughtCEMadmin
Player
p722
(dp723
g11
g638
sg13
(lp724
I1
aI2
aI0
aI0
aI0
aI1
aI0
aI1
aI0
aI1
aI1
aI0
aI1
aI1
aI2
aI1
aI1
aI0
aI1
aI0
aI2
aI1
aI1
aI1
asg15
(lp725
I1
aI2
aI0
aI0
aI0
aI1
aI0
aI1
aI0
aI1
aI1
aI0
aI1
aI1
aI2
aI1
aI1
aI0
aI1
aI0
aI2
aI1
aI1
aI1
asg17
I00
sg18
F0.79166666666666663
sg19
F1.0630675049435696
sg20
I123
sg21
I35
sg22
(lp726
I32
aI78
aI43
aI70
aI17
aI4
asg24
I19
sg25
I0
sg26
(lp727
I85
aI73
aI86
aI76
aI68
aI1
aI68
aI48
aI43
aI18
aI61
aI25
aI38
aI43
aI82
aI58
aI58
aI32
aI78
aI43
aI70
aI17
aI39
aI4
asg28
(lp728
I19
aI19
aI21
aI19
aI22
aI15
aI20
aI22
aI15
aI18
aI22
aI24
aI15
aI20
aI18
aI23
aI24
aI17
aI21
aI19
aI19
asg30
F0.76052577505310681
sg31
I90
sg32
F933.74572322577876
sg33
F849.95936568128673
sg34
I84
sbag223
a(iDraughtCEMadmin
Player
p729
(dp730
g11
g638
sg13
(lp731
I1
aI1
aI1
aI0
aI1
aI0
aI0
aI1
aI1
aI0
aI0
aI1
aI1
aI2
aI1
aI1
aI1
aI0
aI1
aI1
aI1
aI2
aI1
aI1
asg15
(lp732
I1
aI1
aI1
aI0
aI1
aI0
aI0
aI1
aI1
aI0
aI0
aI1
aI1
aI2
aI1
aI1
aI1
aI0
aI1
aI1
aI1
aI2
aI1
aI1
asg17
I00
sg18
F0.83333333333333337
sg19
F1.8793668323847896
sg20
I132
sg21
I37
sg22
(lp733
I53
aI66
aI21
aI4
aI92
aI87
asg24
I20
sg25
I0
sg26
(lp734
I75
aI67
aI85
aI80
aI49
aI85
aI6
aI4
aI28
aI73
aI10
aI96
aI38
aI43
aI95
aI39
aI87
aI91
aI53
aI66
aI21
aI4
aI92
aI87
asg28
(lp735
I19
aI19
aI20
aI20
aI22
aI16
aI21
aI24
aI18
aI16
aI23
aI26
aI19
aI18
aI19
aI25
aI28
aI20
aI19
aI20
aI20
asg30
F0.78087299699466917
sg31
I93
sg32
F936.27672905983252
sg33
F860.76867756836953
sg34
I88
sba(iDraughtCEMadmin
Player
p736
(dp737
g11
g638
sg13
(lp738
I0
aI0
aI2
aI0
aI1
aI2
aI0
aI1
aI1
aI1
aI1
aI0
aI0
aI1
aI1
aI1
aI1
aI1
aI2
aI1
aI1
aI1
aI1
aI0
asg15
(lp739
I0
aI0
aI2
aI0
aI1
aI2
aI0
aI1
aI1
aI1
aI1
aI0
aI0
aI1
aI1
aI1
aI1
aI1
aI2
aI1
aI1
aI1
aI1
aI0
asg17
I00
sg18
F0.83333333333333337
sg19
F1.1922761995572502
sg20
I135
sg21
I38
sg22
(lp740
I50
aI57
aI42
aI85
aI91
aI29
asg24
I20
sg25
I0
sg26
(lp741
I88
aI15
aI19
aI70
aI77
aI72
aI32
aI9
aI64
aI11
aI37
aI35
aI39
aI82
aI17
aI58
aI95
aI95
aI50
aI57
aI42
aI85
aI91
aI29
asg28
(lp742
I19
aI20
aI20
aI21
aI22
aI18
aI21
aI24
aI19
aI19
aI21
aI25
aI21
aI20
aI20
aI22
aI26
aI22
aI21
aI22
aI22
asg30
F0.79977893888000351
sg31
I110
sg32
F955.03136075584007
sg33
F885.7071249598248
sg34
I91
sba(iDraughtCEMadmin
Player
p743
(dp744
g11
g638
sg13
(lp745
I1
aI0
aI1
aI1
aI0
aI0
aI0
aI1
aI0
aI1
aI1
aI1
aI1
aI1
aI2
aI1
aI1
aI1
aI1
aI1
aI1
aI1
aI0
aI1
asg15
(lp746
I1
aI0
aI1
aI1
aI0
aI0
aI0
aI1
aI0
aI1
aI1
aI1
aI1
aI1
aI2
aI1
aI1
aI1
aI1
aI1
aI1
aI1
aI0
aI1
asg17
I00
sg18
F0.79166666666666663
sg19
F1.3416981410340556
sg20
I132
sg21
I39
sg22
(lp747
I19
aI16
aI82
aI92
aI70
aI17
asg24
I19
sg25
I0
sg26
(lp748
I89
aI80
aI61
aI50
aI74
aI53
aI7
aI44
aI45
aI42
aI80
aI38
aI43
aI37
aI87
aI19
aI16
aI82
aI92
aI70
aI17
aI4
aI35
aI17
asg28
(lp749
I20
aI22
aI20
aI24
aI20
aI17
aI25
aI22
aI18
aI18
aI26
aI23
aI19
aI19
aI20
aI28
aI24
aI20
aI20
aI21
aI19
asg30
F0.75298070194669142
sg31
I68
sg32
F926.90751792232311
sg33
F840.61348465301671
sg34
I87
sbag134
a(iDraughtCEMadmin
Player
p750
(dp751
g11
g638
sg13
(lp752
I2
aI1
aI1
aI1
aI1
aI0
aI2
aI1
aI2
aI0
aI1
aI1
aI0
aI1
aI0
aI1
aI0
aI0
aI1
aI2
aI1
aI2
aI0
aI1
aI1
aI0
aI1
aI2
aI1
aI1
aI0
aI1
aI1
aI2
aI0
aI1
aI0
aI0
aI2
aI1
aI0
aI2
asg15
(lp753
I2
aI1
aI1
aI1
aI1
aI0
aI2
aI1
aI2
aI0
aI1
aI1
aI0
aI1
aI0
aI1
aI0
aI0
aI1
aI2
aI1
aI2
aI0
aI1
aI1
aI0
aI1
aI2
aI1
aI1
aI0
aI1
aI1
aI2
aI0
aI1
aI0
aI0
aI2
aI1
aI0
aI2
asg17
I00
sg18
F0.90476190476190477
sg19
F-0.53104539265603989
sg20
I241
sg21
I41
sg22
(lp754
I33
aI32
aI56
aI76
aI13
aI28
asg24
I38
sg25
I0
sg26
(lp755
I91
aI66
aI69
aI77
aI29
aI73
aI4
aI51
aI20
aI52
aI65
aI31
aI78
aI50
aI1
aI46
aI26
aI5
aI67
aI58
aI54
aI99
aI48
aI8
aI65
aI60
aI13
aI69
aI27
aI6
aI61
aI33
aI76
aI42
aI44
aI33
aI32
aI56
aI76
aI13
aI28
aI28
asg28
(lp756
I41
aI42
aI41
aI42
aI41
aI32
aI44
aI43
aI33
aI36
aI45
aI43
aI35
aI37
aI38
aI46
aI45
aI36
aI38
aI40
aI36
asg30
F0.91877347798423636
sg31
I251
sg32
F993.98038810981257
sg33
F965.16604664371698
sg34
I163
sba(iDraughtCEMadmin
Player
p757
(dp758
g11
g638
sg13
(lp759
I2
aI1
aI1
aI2
aI2
aI0
aI0
aI0
aI1
aI1
aI1
aI1
aI1
aI1
aI1
aI1
aI1
aI0
aI0
aI0
aI1
aI1
aI2
aI1
aI1
aI0
aI1
aI0
aI1
aI1
aI2
aI0
aI1
aI0
aI2
aI0
asg15
(lp760
I2
aI1
aI1
aI2
aI2
aI0
aI0
aI0
aI1
aI1
aI1
aI1
aI1
aI1
aI1
aI1
aI1
aI0
aI0
aI0
aI1
aI1
aI2
aI1
aI1
aI0
aI1
aI0
aI1
aI1
aI2
aI0
aI1
aI0
aI2
aI0
asg17
I00
sg18
F0.86111111111111116
sg19
F-0.68793311194137918
sg20
I205
sg21
I42
sg22
(lp761
I29
aI57
aI58
aI41
aI89
aI13
asg24
I31
sg25
I0
sg26
(lp762
I92
aI67
aI40
aI14
aI29
aI46
aI34
aI50
aI84
aI77
aI54
aI45
aI86
aI39
aI23
aI57
aI99
aI15
aI64
aI2
aI38
aI95
aI80
aI58
aI15
aI75
aI91
aI98
aI85
aI34
aI29
aI57
aI58
aI41
aI89
aI13
asg28
(lp763
I32
aI32
aI35
aI33
aI36
aI29
aI34
aI38
aI29
aI32
aI35
aI38
aI31
aI32
aI28
aI37
aI39
aI33
aI33
aI30
aI33
asg30
F0.87873703514212498
sg31
I272
sg32
F986.88231765354669
sg33
F943.85496566101904
sg34
I138
sba(iDraughtCEMadmin
Player
p764
(dp765
g11
g638
sg13
(lp766
I0
aI0
aI0
aI0
aI0
aI2
aI0
aI1
aI2
aI1
aI0
aI2
aI1
aI1
aI1
aI1
aI1
aI1
aI1
aI0
aI0
aI0
aI0
aI2
asg15
(lp767
I0
aI0
aI0
aI0
aI0
aI2
aI0
aI1
aI2
aI1
aI0
aI2
aI1
aI1
aI1
aI1
aI1
aI1
aI1
aI0
aI0
aI0
aI0
aI2
asg17
I00
sg18
F0.70833333333333337
sg19
F0.71309503279786668
sg20
I126
sg21
I43
sg22
(lp768
I45
aI51
aI35
aI21
aI4
aI34
asg24
I17
sg25
I0
sg26
(lp769
I93
aI16
aI56
aI4
aI48
aI7
aI11
aI25
aI35
aI19
aI19
aI82
aI37
aI35
aI39
aI21
aI58
aI87
aI45
aI51
aI35
aI21
aI4
aI34
asg28
(lp770
I20
aI21
aI21
aI22
aI23
aI16
aI23
aI23
aI17
aI18
aI24
aI24
aI18
aI19
aI18
aI25
aI25
aI19
aI20
aI19
aI18
asg30
F0.69086316919582602
sg31
I36
sg32
F929.65517924304322
sg33
F819.33107394786248
sg34
I85
sba(iDraughtCEMadmin
Player
p771
(dp772
g11
g638
sg13
(lp773
I0
aI1
aI1
aI2
aI0
aI1
aI0
aI1
aI0
aI0
aI1
aI0
aI2
aI1
aI1
aI2
aI1
aI0
aI2
aI1
aI1
aI2
aI1
aI1
aI1
aI1
aI2
aI2
aI1
aI1
aI0
aI0
aI1
aI1
aI2
aI2
aI0
aI1
aI2
aI0
aI0
aI0
asg15
(lp774
I0
aI1
aI1
aI2
aI0
aI1
aI0
aI1
aI0
aI0
aI1
aI0
aI2
aI1
aI1
aI2
aI1
aI0
aI2
aI1
aI1
aI2
aI1
aI1
aI1
aI1
aI2
aI2
aI1
aI1
aI0
aI0
aI1
aI1
aI2
aI2
aI0
aI1
aI2
aI0
aI0
aI0
asg17
I00
sg18
F0.9285714285714286
sg19
F-0.19994425266129384
sg20
I261
sg21
I44
sg22
(lp775
I65
aI93
aI0
aI31
aI99
aI27
asg24
I39
sg25
I0
sg26
(lp776
I94
aI17
aI55
aI70
aI96
aI26
aI12
aI40
aI31
aI80
aI39
aI4
aI46
aI60
aI13
aI82
aI34
aI80
aI10
aI1
aI54
aI60
aI61
aI96
aI18
aI18
aI76
aI27
aI74
aI81
aI2
aI64
aI77
aI48
aI41
aI72
aI65
aI93
aI0
aI31
aI99
aI27
asg28
(lp777
I43
aI44
aI42
aI45
aI43
aI37
aI45
aI44
aI38
aI41
aI46
aI46
aI39
aI42
aI41
aI47
aI48
aI41
aI43
aI41
aI41
asg30
F0.93613473602793007
sg31
I216
sg32
F987.56507613238625
sg33
F965.14582440633797
sg34
I176
sbag384
a(iDraughtCEMadmin
Player
p778
(dp779
g11
g653
sg13
(lp780
I2
aI2
aI1
aI1
aI2
aI2
aI0
aI1
aI0
aI0
aI0
aI1
aI0
aI2
aI0
aI1
aI2
aI2
aI1
aI1
aI1
aI0
aI1
aI1
aI1
aI2
aI2
aI0
aI1
aI2
aI1
aI2
aI0
aI1
aI1
aI0
aI0
aI1
aI2
aI1
aI0
aI2
aI1
aI0
aI1
aI2
aI1
aI1
aI1
aI0
aI0
aI0
aI1
aI0
aI0
aI1
aI2
aI0
aI1
aI1
aI1
aI0
aI2
asg15
(lp781
I2
aI2
aI1
aI1
aI2
aI2
aI0
aI1
aI0
aI0
aI0
aI1
aI0
aI2
aI0
aI1
aI2
aI2
aI1
aI1
aI1
aI0
aI1
aI1
aI1
aI2
aI2
aI0
aI1
aI2
aI1
aI2
aI0
aI1
aI1
aI0
aI0
aI1
aI2
aI1
aI0
aI2
aI1
aI0
aI1
aI2
aI1
aI1
aI1
aI0
aI0
aI0
aI1
aI0
aI0
aI1
aI2
aI0
aI1
aI1
aI1
aI0
aI2
asg17
I00
sg18
F0.93650793650793651
sg19
F-1.0794734526918546
sg20
I313
sg21
I46
sg22
(lp782
I99
aI6
aI68
aI81
aI9
asg24
I59
sg25
I0
sg26
(lp783
I96
aI71
aI20
aI86
aI16
aI42
aI22
aI49
aI94
aI97
aI68
aI7
aI44
aI23
aI56
aI69
aI41
aI77
aI21
aI95
aI3
aI81
aI69
aI16
aI36
aI36
aI78
aI31
aI45
aI26
aI76
aI28
aI75
aI22
aI59
aI9
aI11
aI30
aI99
aI68
aI7
aI79
aI90
aI3
aI0
aI31
aI10
aI84
aI40
aI55
aI99
aI14
aI7
aI33
aI14
aI49
aI12
aI9
aI99
aI6
aI68
aI81
aI9
asg28
(lp784
I62
aI63
aI63
aI64
aI64
aI57
aI65
aI65
aI58
aI60
aI66
aI67
aI59
aI62
aI59
asg30
F0.96587307199044681
sg31
I505
sg32
F1018.3671758420211
sg33
F1005.4261869162476
sg34
I189
sba(iDraughtCEMadmin
Player
p785
(dp786
g11
g638
sg13
(lp787
I1
aI1
aI2
aI0
aI2
aI1
aI1
aI1
aI0
aI1
aI1
aI0
aI1
aI2
aI2
aI1
aI0
aI1
aI1
aI0
aI0
aI1
aI0
aI2
aI2
aI1
aI0
aI2
aI1
aI1
aI0
aI0
aI0
aI1
aI0
aI1
aI1
aI1
aI1
aI1
aI0
aI1
asg15
(lp788
I1
aI1
aI2
aI0
aI2
aI1
aI1
aI1
aI0
aI1
aI1
aI0
aI1
aI2
aI2
aI1
aI0
aI1
aI1
aI0
aI0
aI1
aI0
aI2
aI2
aI1
aI0
aI2
aI1
aI1
aI0
aI0
aI0
aI1
aI0
aI1
aI1
aI1
aI1
aI1
aI0
aI1
asg17
I00
sg18
F0.8571428571428571
sg19
F-1.2181454792396609
sg20
I235
sg21
I47
sg22
(lp789
I68
aI9
aI28
aI13
aI56
aI74
asg24
I36
sg25
I0
sg26
(lp790
I97
aI92
aI19
aI6
aI98
aI83
aI95
aI31
aI86
aI89
aI67
aI93
aI71
aI71
aI61
aI10
aI12
aI31
aI25
aI62
aI55
aI88
aI72
aI73
aI0
aI57
aI72
aI89
aI16
aI99
aI65
aI59
aI71
aI98
aI60
aI68
aI9
aI28
aI13
aI13
aI56
aI74
asg28
(lp791
I38
aI39
aI40
aI40
aI41
aI34
aI41
aI41
aI35
aI36
aI42
aI42
aI36
aI38
aI35
aI42
aI43
aI36
aI40
aI36
aI38
asg30
F0.89380007488903834
sg31
I267
sg32
F992.77565858391404
sg33
F954.52021789707101
sg34
I158
sba(iDraughtCEMadmin
Player
p792
(dp793
g11
g638
sg13
(lp794
I0
aI1
aI0
aI0
aI1
aI0
aI1
aI2
aI2
aI2
aI0
aI1
aI1
aI0
aI2
aI1
aI1
aI0
aI2
aI1
aI1
aI2
aI0
aI1
aI1
aI1
aI1
aI1
aI1
aI1
aI2
aI0
aI1
aI1
aI1
aI1
asg15
(lp795
I0
aI1
aI0
aI0
aI1
aI0
aI1
aI2
aI2
aI2
aI0
aI1
aI1
aI0
aI2
aI1
aI1
aI0
aI2
aI1
aI1
aI2
aI0
aI1
aI1
aI1
aI1
aI1
aI1
aI1
aI2
aI0
aI1
aI1
aI1
aI1
asg17
I00
sg18
F0.94444444444444442
sg19
F0.78697133008545284
sg20
I215
sg21
I48
sg22
(lp796
I31
aI23
aI69
aI44
aI6
aI27
asg24
I34
sg25
I0
sg26
(lp797
I98
aI21
aI60
aI71
aI43
aI89
aI9
aI35
aI21
aI99
aI27
aI75
aI12
aI80
aI3
aI92
aI28
aI85
aI78
aI49
aI13
aI91
aI33
aI41
aI14
aI14
aI16
aI32
aI6
aI27
aI31
aI23
aI69
aI44
aI6
aI27
asg28
(lp798
I33
aI33
aI36
aI34
aI37
aI31
aI35
aI38
aI32
aI32
aI37
aI39
aI33
aI34
aI33
aI37
aI39
aI34
aI36
aI35
aI34
asg30
F0.92129679556724298
sg31
I74
sg32
F973.52891339573443
sg33
F946.91492142496531
sg34
I145
sba(iDraughtCEMadmin
Player
p799
(dp800
g11
g638
sg13
(lp801
I1
aI0
aI1
aI2
aI0
aI2
aI1
aI1
aI1
aI1
aI1
aI0
aI2
aI2
aI0
aI2
aI2
aI1
aI1
aI1
aI2
aI1
aI1
aI1
aI0
aI1
aI2
aI1
aI0
aI0
aI0
aI0
aI1
aI2
aI1
aI1
aI1
aI1
aI1
aI1
aI0
aI0
aI1
aI0
aI0
aI0
aI1
aI1
aI2
aI1
aI1
aI0
aI0
aI1
aI0
aI1
aI1
aI1
asg15
(lp802
I1
aI0
aI1
aI2
aI0
aI2
aI1
aI1
aI1
aI1
aI1
aI0
aI2
aI2
aI0
aI2
aI2
aI1
aI1
aI1
aI2
aI1
aI1
aI1
aI0
aI1
aI2
aI1
aI0
aI0
aI0
aI0
aI1
aI2
aI1
aI1
aI1
aI1
aI1
aI1
aI0
aI0
aI1
aI0
aI0
aI0
aI1
aI1
aI2
aI1
aI1
aI0
aI0
aI1
aI0
aI1
aI1
aI1
asg17
I00
sg18
F0.87931034482758619
sg19
F-1.2262315349096526
sg20
I287
sg21
I49
sg22
(lp803
I53
aI53
aI46
aI8
aI68
asg24
I51
sg25
I0
sg26
(lp804
I99
aI96
aI50
aI3
aI57
aI37
aI86
aI46
aI53
aI18
aI7
aI19
aI88
aI97
aI11
aI96
aI16
aI2
aI88
aI48
aI0
aI11
aI65
aI40
aI1
aI96
aI81
aI57
aI83
aI51
aI88
aI36
aI72
aI8
aI68
aI3
aI64
aI20
aI70
aI81
aI67
aI60
aI62
aI15
aI26
aI77
aI8
aI72
aI59
aI19
aI69
aI14
aI8
aI53
aI53
aI46
aI8
aI68
asg28
(lp805
I57
aI59
aI59
aI60
aI60
aI52
aI62
aI62
aI54
aI52
aI63
aI63
aI54
aI53
aI54
asg30
F0.91631320448655318
sg31
I286
sg32
F1019.8003646525499
sg33
F989.43019846673678
sg34
I172
sbag111
ag351
ag54
ag182
a(iDraughtCEMadmin
Player
p806
(dp807
g11
g638
sg13
(lp808
I2
aI0
aI0
aI2
aI2
aI1
aI1
aI0
aI1
aI1
aI1
aI0
aI1
aI0
aI0
aI2
aI2
aI1
aI1
aI0
aI1
aI0
aI0
aI0
aI0
aI2
aI2
aI0
aI1
aI1
asg15
(lp809
I2
aI0
aI0
aI2
aI2
aI1
aI1
aI0
aI1
aI1
aI1
aI0
aI1
aI0
aI0
aI2
aI2
aI1
aI1
aI0
aI1
aI0
aI0
aI0
aI0
aI2
aI2
aI0
aI1
aI1
asg17
I00
sg18
F0.83333333333333337
sg19
F-0.064483664417980438
sg20
I162
sg21
I54
sg22
(lp810
I10
aI12
aI85
aI28
aI95
aI60
asg24
I25
sg25
I0
sg26
(lp811
I4
aI72
aI14
aI61
aI65
aI40
aI61
aI81
aI71
aI67
aI42
aI98
aI62
aI22
aI73
aI95
aI58
aI96
aI12
aI79
aI44
aI41
aI95
aI25
aI10
aI12
aI85
aI28
aI95
aI60
asg28
(lp812
I27
aI28
aI26
aI29
aI28
aI22
aI30
aI28
aI24
aI25
aI31
aI28
aI25
aI26
aI24
aI32
aI28
aI25
aI27
aI25
aI25
asg30
F0.83473924997275428
sg31
I193
sg32
F978.70949317029442
sg33
F920.69609615005641
sg34
I108
sbag319
a(iDraughtCEMadmin
Player
p813
(dp814
g11
g638
sg13
(lp815
I0
aI0
aI2
aI0
aI1
aI1
aI1
aI1
aI2
aI0
aI2
aI2
aI1
aI1
aI2
aI2
aI0
aI1
aI0
aI0
aI1
aI1
aI2
aI0
aI1
aI2
aI0
aI0
aI2
aI1
aI1
aI1
aI0
aI0
aI1
aI0
aI0
aI0
aI0
aI1
aI2
aI1
asg15
(lp816
I0
aI0
aI2
aI0
aI1
aI1
aI1
aI1
aI2
aI0
aI2
aI2
aI1
aI1
aI2
aI2
aI0
aI1
aI0
aI0
aI1
aI1
aI2
aI0
aI1
aI2
aI0
aI0
aI2
aI1
aI1
aI1
aI0
aI0
aI1
aI0
aI0
aI0
aI0
aI1
aI2
aI1
asg17
I00
sg18
F0.8571428571428571
sg19
F-1.175994691388621
sg20
I239
sg21
I56
sg22
(lp817
I53
aI23
aI41
aI28
aI47
aI76
asg24
I36
sg25
I0
sg26
(lp818
I6
aI27
aI43
aI96
aI61
aI17
aI78
aI45
aI74
aI10
aI80
aI87
aI20
aI46
aI98
aI36
aI45
aI25
aI27
aI9
aI96
aI7
aI93
aI66
aI74
aI29
aI98
aI16
aI19
aI15
aI32
aI70
aI77
aI13
aI58
aI53
aI23
aI41
aI28
aI47
aI76
aI76
asg28
(lp819
I40
aI41
aI41
aI42
aI42
aI35
aI43
aI43
aI36
aI35
aI44
aI45
aI36
aI36
aI35
aI46
aI45
aI38
aI36
aI36
aI38
asg30
F0.8926007157600846
sg31
I150
sg32
F991.66342592952458
sg33
F953.02862815202229
sg34
I158
sbag239
a(iDraughtCEMadmin
Player
p820
(dp821
g11
g638
sg13
(lp822
I0
aI0
aI0
aI2
aI0
aI1
aI1
aI2
aI2
aI0
aI1
aI0
aI2
aI1
aI1
aI1
aI0
aI2
aI1
aI1
aI1
aI1
aI1
aI1
aI0
aI1
aI1
aI0
aI2
aI1
aI0
aI1
aI1
aI0
aI2
aI2
asg15
(lp823
I0
aI0
aI0
aI2
aI0
aI1
aI1
aI2
aI2
aI0
aI1
aI0
aI2
aI1
aI1
aI1
aI0
aI2
aI1
aI1
aI1
aI1
aI1
aI1
aI0
aI1
aI1
aI0
aI2
aI1
aI0
aI1
aI1
aI0
aI2
aI2
asg17
I00
sg18
F0.91666666666666663
sg19
F0.33685848350816061
sg20
I199
sg21
I58
sg22
(lp824
I0
aI10
aI42
aI28
aI60
aI56
asg24
I33
sg25
I0
sg26
(lp825
I8
aI29
aI52
aI57
aI53
aI28
aI51
aI74
aI13
aI16
aI93
aI3
aI89
aI54
aI35
aI43
aI38
aI35
aI93
aI18
aI41
aI28
aI98
aI42
aI68
aI7
aI98
aI6
aI89
aI70
aI0
aI10
aI42
aI28
aI60
aI56
asg28
(lp826
I34
aI35
aI34
aI36
aI35
aI29
aI36
aI35
aI29
aI31
aI37
aI35
aI31
aI32
aI29
aI37
aI36
aI31
aI33
aI30
aI32
asg30
F0.90737184597986575
sg31
I98
sg32
F975.66703457296489
sg33
F943.72905822139148
sg34
I133
sbag278
a(iDraughtCEMadmin
Player
p827
(dp828
g11
g653
sg13
(lp829
I1
aI0
aI2
aI1
aI0
aI1
aI2
aI1
aI1
aI1
aI2
aI0
aI1
aI1
aI1
aI0
aI2
aI1
aI0
aI1
aI0
aI0
aI1
aI1
aI1
aI0
aI1
aI0
aI1
aI1
aI1
aI1
aI1
aI1
aI0
aI1
aI2
aI2
aI1
aI2
aI2
aI2
aI2
aI1
aI1
aI1
aI1
aI2
aI1
aI1
aI2
aI1
aI0
aI1
aI0
aI0
aI1
aI2
aI1
aI1
aI1
aI2
aI1
aI0
aI0
aI1
aI1
aI1
asg15
(lp830
I1
aI0
aI2
aI1
aI0
aI1
aI2
aI1
aI1
aI1
aI2
aI0
aI1
aI1
aI1
aI0
aI2
aI1
aI0
aI1
aI0
aI0
aI1
aI1
aI1
aI0
aI1
aI0
aI1
aI1
aI1
aI1
aI1
aI1
aI0
aI1
aI2
aI2
aI1
aI2
aI2
aI2
aI2
aI1
aI1
aI1
aI1
aI2
aI1
aI1
aI2
aI1
aI0
aI1
aI0
aI0
aI1
aI2
aI1
aI1
aI1
aI2
aI1
aI0
aI0
aI1
aI1
aI1
asg17
I00
sg18
F0.98529411764705888
sg19
F0.17490496977968634
sg20
I349
sg21
I60
sg22
(lp831
I31
aI23
aI3
aI86
aI22
asg24
I67
sg25
I0
sg26
(lp832
I10
aI20
aI48
aI81
aI97
aI50
aI27
aI79
aI14
aI45
aI6
aI71
aI94
aI44
aI45
aI66
aI85
aI81
aI94
aI68
aI10
aI44
aI82
aI70
aI31
aI59
aI41
aI34
aI88
aI54
aI5
aI67
aI88
aI89
aI58
aI47
aI0
aI61
aI72
aI74
aI69
aI49
aI57
aI5
aI31
aI29
aI55
aI50
aI84
aI70
aI33
aI61
aI40
aI63
aI14
aI33
aI62
aI30
aI31
aI23
aI3
aI51
aI51
aI22
aI86
aI32
aI86
aI22
asg28
(lp833
I69
aI71
aI71
aI73
aI72
aI65
aI74
aI73
aI66
aI64
aI76
aI74
aI67
aI65
aI67
asg30
F0.97922849061615191
sg31
I275
sg32
F1014.6818573986149
sg33
F1007.6389626705976
sg34
I209
sbag335
ag143
ag127
ag38
ag326
ag230
a(iDraughtCEMadmin
Player
p834
(dp835
g11
g638
sg13
(lp836
I1
aI1
aI1
aI1
aI1
aI1
aI2
aI0
aI1
aI1
aI1
aI2
aI2
aI1
aI1
aI2
aI0
aI0
aI1
aI0
aI0
aI1
aI2
aI2
aI2
aI1
aI1
aI0
aI1
aI1
aI1
aI1
aI0
aI2
aI0
aI1
aI1
aI1
aI1
aI1
aI2
aI0
aI0
aI0
aI0
aI2
aI1
aI1
aI1
aI1
aI0
aI1
aI1
asg15
(lp837
I1
aI1
aI1
aI1
aI1
aI1
aI2
aI0
aI1
aI1
aI1
aI2
aI2
aI1
aI1
aI2
aI0
aI0
aI1
aI0
aI0
aI1
aI2
aI2
aI2
aI1
aI1
aI0
aI1
aI1
aI1
aI1
aI0
aI2
aI0
aI1
aI1
aI1
aI1
aI1
aI2
aI0
aI0
aI0
aI0
aI2
aI1
aI1
aI1
aI1
aI0
aI1
aI1
asg17
I00
sg18
F0.94339622641509435
sg19
F-0.64606310124962651
sg20
I268
sg21
I67
sg22
(lp838
I15
aI63
aI86
aI12
aI69
asg24
I50
sg25
I0
sg26
(lp839
I17
aI42
aI37
aI1
aI84
aI18
aI62
aI75
aI96
aI54
aI47
aI3
aI25
aI9
aI76
aI77
aI68
aI14
aI17
aI41
aI31
aI27
aI50
aI76
aI34
aI87
aI83
aI51
aI22
aI9
aI94
aI60
aI5
aI26
aI18
aI96
aI2
aI90
aI81
aI70
aI49
aI6
aI50
aI18
aI10
aI72
aI1
aI0
aI15
aI63
aI86
aI12
aI69
asg28
(lp840
I53
aI54
aI54
aI54
aI55
aI50
aI56
aI57
aI51
aI49
aI57
aI59
aI53
aI50
aI49
asg30
F0.96239747220384142
sg31
I268
sg32
F1006.4332299774932
sg33
F992.71654788873991
sg34
I160
sba(iDraughtCEMadmin
Player
p841
(dp842
g11
g653
sg13
(lp843
I0
aI1
aI1
aI1
aI2
aI2
aI1
aI1
aI1
aI1
aI2
aI2
aI0
aI2
aI0
aI2
aI2
aI1
aI1
aI1
aI1
aI0
aI0
aI1
aI2
aI1
aI1
aI0
aI1
aI1
aI0
aI2
aI0
aI1
aI1
aI1
aI1
aI1
aI1
aI1
aI1
aI0
aI1
aI0
aI0
aI0
aI1
aI1
aI1
aI0
aI2
aI2
aI0
aI1
aI1
aI1
aI0
aI1
aI1
aI1
aI1
aI1
aI1
asg15
(lp844
I0
aI1
aI1
aI1
aI2
aI2
aI1
aI1
aI1
aI1
aI2
aI2
aI0
aI2
aI0
aI2
aI2
aI1
aI1
aI1
aI1
aI0
aI0
aI1
aI2
aI1
aI1
aI0
aI1
aI1
aI0
aI2
aI0
aI1
aI1
aI1
aI1
aI1
aI1
aI1
aI1
aI0
aI1
aI0
aI0
aI0
aI1
aI1
aI1
aI0
aI2
aI2
aI0
aI1
aI1
aI1
aI0
aI1
aI1
aI1
aI1
aI1
aI1
asg17
I00
sg18
F0.93650793650793651
sg19
F-0.69755642044957544
sg20
I309
sg21
I68
sg22
(lp845
I96
aI10
aI46
aI9
aI86
asg24
I59
sg25
I0
sg26
(lp846
I18
aI31
aI95
aI87
aI35
aI2
aI91
aI35
aI65
aI76
aI46
aI33
aI32
aI72
aI83
aI18
aI67
aI20
aI69
aI60
aI30
aI20
aI93
aI26
aI58
aI32
aI75
aI97
aI66
aI24
aI70
aI79
aI55
aI29
aI49
aI10
aI47
aI83
aI51
aI46
aI96
aI22
aI64
aI65
aI0
aI99
aI14
aI78
aI7
aI97
aI26
aI1
aI57
aI57
aI12
aI81
aI8
aI49
aI96
aI10
aI46
aI9
aI86
asg28
(lp847
I62
aI63
aI63
aI64
aI63
aI57
aI65
aI65
aI57
aI59
aI66
aI65
aI59
aI59
aI60
asg30
F0.9548979777431954
sg31
I303
sg32
F1016.1613162225392
sg33
F999.78307400658537
sg34
I186
sba(iDraughtCEMadmin
Player
p848
(dp849
g11
g638
sg13
(lp850
I2
aI1
aI1
aI0
aI2
aI1
aI1
aI1
aI0
aI0
aI1
aI2
aI1
aI0
aI2
aI1
aI0
aI1
aI1
aI2
aI0
aI2
aI1
aI1
aI1
aI1
aI0
aI1
aI1
aI1
aI0
aI1
aI1
aI1
aI1
aI1
aI2
aI1
aI1
aI0
aI0
aI1
aI0
aI1
aI0
aI1
aI1
aI2
aI1
aI1
aI1
aI1
aI1
asg15
(lp851
I2
aI1
aI1
aI0
aI2
aI1
aI1
aI1
aI0
aI0
aI1
aI2
aI1
aI0
aI2
aI1
aI0
aI1
aI1
aI2
aI0
aI2
aI1
aI1
aI1
aI1
aI0
aI1
aI1
aI1
aI0
aI1
aI1
aI1
aI1
aI1
aI2
aI1
aI1
aI0
aI0
aI1
aI0
aI1
aI0
aI1
aI1
aI2
aI1
aI1
aI1
aI1
aI1
asg17
I00
sg18
F0.92452830188679247
sg19
F-0.41621553450869442
sg20
I257
sg21
I69
sg22
(lp852
I66
aI61
aI49
aI8
aI67
asg24
I49
sg25
I0
sg26
(lp853
I19
aI76
aI41
aI40
aI21
aI63
aI70
aI95
aI5
aI71
aI81
aI55
aI79
aI94
aI74
aI46
aI45
aI55
aI68
aI64
aI66
aI71
aI46
aI32
aI94
aI79
aI31
aI70
aI41
aI87
aI90
aI93
aI48
aI87
aI12
aI98
aI23
aI33
aI1
aI87
aI60
aI77
aI22
aI75
aI76
aI8
aI72
aI74
aI66
aI61
aI49
aI8
aI67
asg28
(lp854
I52
aI53
aI53
aI54
aI53
aI47
aI55
aI54
aI47
aI46
aI56
aI56
aI47
aI48
aI50
asg30
F0.93785542923368215
sg31
I315
sg32
F1013.3362095624059
sg33
F991.30089937298408
sg34
I155
sba(iDraughtCEMadmin
Player
p855
(dp856
g11
g638
sg13
(lp857
I0
aI1
aI1
aI0
aI1
aI1
aI1
aI2
aI1
aI1
aI2
aI0
aI1
aI1
aI0
aI2
aI1
aI0
aI1
aI0
aI0
aI1
aI2
aI1
aI1
aI1
aI2
aI1
aI0
aI1
aI2
aI2
aI0
aI2
aI1
aI2
aI1
aI1
aI1
aI1
aI1
aI2
aI1
aI1
aI2
aI1
aI1
aI0
aI1
aI1
aI0
aI1
aI0
aI0
aI1
aI2
aI2
aI0
asg15
(lp858
I0
aI1
aI1
aI0
aI1
aI1
aI1
aI2
aI1
aI1
aI2
aI0
aI1
aI1
aI0
aI2
aI1
aI0
aI1
aI0
aI0
aI1
aI2
aI1
aI1
aI1
aI2
aI1
aI0
aI1
aI2
aI2
aI0
aI2
aI1
aI2
aI1
aI1
aI1
aI1
aI1
aI2
aI1
aI1
aI2
aI1
aI1
aI0
aI1
aI1
aI0
aI1
aI0
aI0
aI1
aI2
aI2
aI0
asg17
I00
sg18
F0.98275862068965514
sg19
F0.3765449624126177
sg20
I298
sg21
I70
sg22
(lp859
I5
aI83
aI81
aI9
aI59
asg24
I57
sg25
I0
sg26
(lp860
I20
aI33
aI34
aI44
aI38
aI61
aI69
aI88
aI10
aI55
aI13
aI72
aI2
aI33
aI57
aI74
aI1
aI3
aI8
aI93
aI73
aI35
aI39
aI60
aI3
aI45
aI6
aI69
aI32
aI58
aI68
aI31
aI81
aI56
aI3
aI8
aI97
aI63
aI49
aI67
aI81
aI99
aI40
aI40
aI55
aI9
aI23
aI61
aI79
aI50
aI60
aI3
aI99
aI5
aI83
aI81
aI9
aI59
asg28
(lp861
I60
aI61
aI59
aI63
aI60
aI53
aI63
aI60
aI55
aI55
aI65
aI61
aI56
aI57
aI59
asg30
F0.97342809349222958
sg31
I176
sg32
F1006.712436210977
sg33
F997.85478154926352
sg34
I180
sba(iDraughtCEMadmin
Player
p862
(dp863
g11
g638
sg13
(lp864
I1
aI0
aI0
aI2
aI2
aI0
aI1
aI2
aI1
aI2
aI1
aI2
aI1
aI0
aI1
aI1
aI1
aI1
aI0
aI0
aI1
aI0
aI2
aI1
aI0
aI1
aI0
aI1
aI0
aI2
aI1
aI1
aI2
aI0
aI1
aI1
aI2
aI1
aI1
aI1
aI2
aI1
aI2
aI0
aI1
aI0
aI1
aI1
asg15
(lp865
I1
aI0
aI0
aI2
aI2
aI0
aI1
aI2
aI1
aI2
aI1
aI2
aI1
aI0
aI1
aI1
aI1
aI1
aI0
aI0
aI1
aI0
aI2
aI1
aI0
aI1
aI0
aI1
aI0
aI2
aI1
aI1
aI2
aI0
aI1
aI1
aI2
aI1
aI1
aI1
aI2
aI1
aI2
aI0
aI1
aI0
aI1
aI1
asg17
I00
sg18
F0.95833333333333337
sg19
F0.3924751861546838
sg20
I291
sg21
I71
sg22
(lp866
I19
aI52
aI87
aI27
aI76
aI1
asg24
I46
sg25
I0
sg26
(lp867
I21
aI46
aI12
aI48
aI17
aI8
aI77
aI54
aI69
aI12
aI60
aI47
aI47
aI10
aI16
aI93
aI66
aI74
aI82
aI96
aI69
aI29
aI6
aI40
aI97
aI50
aI91
aI87
aI85
aI66
aI51
aI47
aI3
aI76
aI77
aI61
aI55
aI10
aI8
aI26
aI51
aI3
aI19
aI52
aI87
aI27
aI76
aI1
asg28
(lp868
I46
aI48
aI50
aI49
aI51
aI44
aI50
aI52
aI45
aI46
aI51
aI52
aI46
aI47
aI45
aI52
aI53
aI47
aI48
aI45
aI46
asg30
F0.94603239458754174
sg31
I238
sg32
F993.56635046075996
sg33
F975.19032378536792
sg34
I194
sba(iDraughtCEMadmin
Player
p869
(dp870
g11
g638
sg13
(lp871
I1
aI2
aI1
aI0
aI2
aI2
aI0
aI1
aI1
aI0
aI1
aI2
aI0
aI0
aI2
aI2
aI0
aI0
aI1
aI0
aI1
aI1
aI2
aI1
aI1
aI1
aI2
aI0
aI1
aI2
aI1
aI0
aI1
aI2
aI0
aI0
aI1
aI0
aI1
aI1
aI1
aI0
aI1
aI0
aI2
aI0
aI1
aI1
asg15
(lp872
I1
aI2
aI1
aI0
aI2
aI2
aI0
aI1
aI1
aI0
aI1
aI2
aI0
aI0
aI2
aI2
aI0
aI0
aI1
aI0
aI1
aI1
aI2
aI1
aI1
aI1
aI2
aI0
aI1
aI2
aI1
aI0
aI1
aI2
aI0
aI0
aI1
aI0
aI1
aI1
aI1
aI0
aI1
aI0
aI2
aI0
aI1
aI1
asg17
I00
sg18
F0.89583333333333337
sg19
F-0.69180078309083237
sg20
I278
sg21
I72
sg22
(lp873
I66
aI6
aI8
aI67
aI69
aI49
asg24
I43
sg25
I0
sg26
(lp874
I22
aI54
aI16
aI32
aI11
aI7
aI65
aI38
aI40
aI15
aI50
aI70
aI73
aI68
aI89
aI88
aI7
aI50
aI0
aI30
aI91
aI32
aI47
aI77
aI19
aI64
aI47
aI24
aI96
aI32
aI52
aI2
aI49
aI78
aI45
aI44
aI62
aI5
aI60
aI78
aI77
aI13
aI66
aI6
aI8
aI67
aI69
aI49
asg28
(lp875
I45
aI47
aI47
aI49
aI48
aI40
aI50
aI48
aI41
aI44
aI50
aI49
aI42
aI45
aI42
aI51
aI50
aI44
aI46
aI44
aI43
asg30
F0.91443629934441728
sg31
I369
sg32
F1010.7389753260978
sg33
F980.24643237391524
sg34
I187
sba(iDraughtCEMadmin
Player
p876
(dp877
g11
g638
sg13
(lp878
I0
aI0
aI1
aI2
aI1
aI0
aI0
aI1
aI0
aI1
aI2
aI0
aI2
aI1
aI2
aI1
aI1
aI1
aI1
aI0
aI2
aI0
aI1
aI0
asg15
(lp879
I0
aI0
aI1
aI2
aI1
aI0
aI0
aI1
aI0
aI1
aI2
aI0
aI2
aI1
aI2
aI1
aI1
aI1
aI1
aI0
aI2
aI0
aI1
aI0
asg17
I00
sg18
F0.83333333333333337
sg19
F0.25122393720705533
sg20
I139
sg21
I73
sg22
(lp880
I18
aI11
aI70
aI89
aI85
aI47
asg24
I20
sg25
I0
sg26
(lp881
I23
aI35
aI82
aI4
aI50
aI64
aI41
aI18
aI17
aI82
aI37
aI26
aI72
aI85
aI54
aI34
aI88
aI89
aI18
aI11
aI70
aI89
aI85
aI47
asg28
(lp882
I21
aI22
aI23
aI23
aI24
aI17
aI23
aI25
aI18
aI21
aI24
aI26
aI20
aI21
aI20
aI26
aI27
aI21
aI22
aI21
aI22
asg30
F0.82591412077949899
sg31
I86
sg32
F949.14039222003009
sg33
F888.28562678516676
sg34
I95
sba(iDraughtCEMadmin
Player
p883
(dp884
g11
g638
sg13
(lp885
I0
aI1
aI1
aI0
aI1
aI2
aI0
aI1
aI0
aI2
aI1
aI0
aI2
aI2
aI0
aI0
aI2
aI0
aI2
aI1
aI2
aI2
aI1
aI1
aI1
aI1
aI2
aI0
aI1
aI2
aI1
aI0
aI0
aI0
aI1
aI0
aI1
aI2
aI0
aI0
aI1
aI1
aI1
aI1
aI2
aI0
aI0
aI0
asg15
(lp886
I0
aI1
aI1
aI0
aI1
aI2
aI0
aI1
aI0
aI2
aI1
aI0
aI2
aI2
aI0
aI0
aI2
aI0
aI2
aI1
aI2
aI2
aI1
aI1
aI1
aI1
aI2
aI0
aI1
aI2
aI1
aI0
aI0
aI0
aI1
aI0
aI1
aI2
aI0
aI0
aI1
aI1
aI1
aI1
aI2
aI0
aI0
aI0
asg17
I00
sg18
F0.875
sg19
F-0.97840473677246109
sg20
I277
sg21
I74
sg22
(lp887
I29
aI7
aI14
aI76
aI78
aI69
asg24
I42
sg25
I0
sg26
(lp888
I24
aI36
aI18
aI91
aI39
aI97
aI16
aI56
aI4
aI58
aI57
aI1
aI51
aI69
aI70
aI91
aI9
aI71
aI6
aI85
aI61
aI31
aI99
aI90
aI84
aI56
aI3
aI44
aI12
aI89
aI63
aI50
aI99
aI27
aI6
aI5
aI18
aI14
aI60
aI28
aI28
aI47
aI29
aI7
aI14
aI76
aI78
aI69
asg28
(lp889
I45
aI45
aI46
aI45
aI48
aI41
aI46
aI49
aI42
aI44
aI47
aI51
aI43
aI45
aI44
aI48
aI52
aI43
aI45
aI45
aI44
asg30
F0.90477614085973646
sg31
I228
sg32
F997.01398151133697
sg33
F962.85087414228929
sg34
I184
sbag159
a(iDraughtCEMadmin
Player
p890
(dp891
g11
g638
sg13
(lp892
I1
aI1
aI1
aI2
aI0
aI0
aI2
aI2
aI1
aI1
aI2
aI2
aI1
aI0
aI1
aI1
aI2
aI1
aI1
aI0
aI0
aI0
aI1
aI0
aI0
aI1
aI0
aI1
aI1
aI1
aI1
aI1
aI1
aI1
aI1
aI0
aI1
aI1
aI1
aI1
aI1
aI1
aI0
aI2
aI2
aI2
aI1
aI0
asg15
(lp893
I1
aI1
aI1
aI2
aI0
aI0
aI2
aI2
aI1
aI1
aI2
aI2
aI1
aI0
aI1
aI1
aI2
aI1
aI1
aI0
aI0
aI0
aI1
aI0
aI0
aI1
aI0
aI1
aI1
aI1
aI1
aI1
aI1
aI1
aI1
aI0
aI1
aI1
aI1
aI1
aI1
aI1
aI0
aI2
aI2
aI2
aI1
aI0
asg17
I00
sg18
F0.9375
sg19
F0.39058220138464322
sg20
I280
sg21
I76
sg22
(lp894
I75
aI81
aI69
aI74
aI71
aI86
asg24
I45
sg25
I0
sg26
(lp895
I26
aI69
aI33
aI35
aI79
aI1
aI40
aI5
aI36
aI68
aI14
aI1
aI14
aI67
aI19
aI11
aI64
aI77
aI61
aI19
aI5
aI16
aI67
aI84
aI86
aI44
aI80
aI34
aI46
aI55
aI41
aI77
aI71
aI1
aI24
aI7
aI13
aI41
aI78
aI56
aI28
aI56
aI75
aI81
aI69
aI74
aI71
aI86
asg28
(lp896
I46
aI47
aI45
aI48
aI45
aI40
aI50
aI46
aI41
aI42
aI52
aI48
aI42
aI42
aI45
aI53
aI48
aI44
aI42
aI46
aI47
asg30
F0.92816937159699253
sg31
I229
sg32
F1005.3943178460444
sg33
F980.78532803358269
sg34
I187
sba(iDraughtCEMadmin
Player
p897
(dp898
g11
g638
sg13
(lp899
I1
aI1
aI2
aI1
aI1
aI1
aI2
aI0
aI0
aI1
aI2
aI0
aI2
aI2
aI1
aI0
aI0
aI0
aI1
aI2
aI0
aI2
aI0
aI1
aI1
aI1
aI0
aI0
aI1
aI1
aI1
aI1
aI1
aI1
aI1
aI1
aI1
aI1
aI1
aI1
aI1
aI1
aI1
aI0
aI1
aI2
aI1
aI1
asg15
(lp900
I1
aI1
aI2
aI1
aI1
aI1
aI2
aI0
aI0
aI1
aI2
aI0
aI2
aI2
aI1
aI0
aI0
aI0
aI1
aI2
aI0
aI2
aI0
aI1
aI1
aI1
aI0
aI0
aI1
aI1
aI1
aI1
aI1
aI1
aI1
aI1
aI1
aI1
aI1
aI1
aI1
aI1
aI1
aI0
aI1
aI2
aI1
aI1
asg17
I00
sg18
F0.9375
sg19
F0.3961986123668112
sg20
I284
sg21
I77
sg22
(lp901
I45
aI2
aI78
aI49
aI86
aI12
asg24
I45
sg25
I0
sg26
(lp902
I27
aI78
aI80
aI41
aI83
aI96
aI38
aI71
aI59
aI42
aI34
aI30
aI0
aI17
aI64
aI67
aI18
aI46
aI76
aI0
aI7
aI1
aI3
aI72
aI22
aI83
aI9
aI96
aI91
aI80
aI24
aI24
aI44
aI76
aI56
aI71
aI55
aI53
aI78
aI26
aI72
aI69
aI45
aI2
aI78
aI49
aI86
aI12
asg28
(lp903
I45
aI46
aI48
aI48
aI50
aI41
aI48
aI51
aI42
aI41
aI49
aI52
aI44
aI42
aI45
aI50
aI54
aI45
aI43
aI47
aI45
asg30
F0.92800855423591622
sg31
I329
sg32
F1000.684825058323
sg33
F976.02528754702166
sg34
I189
sba(iDraughtCEMadmin
Player
p904
(dp905
g11
g638
sg13
(lp906
I2
aI1
aI1
aI0
aI1
aI1
aI1
aI2
aI1
aI2
aI1
aI2
aI0
aI1
aI1
aI0
aI1
aI1
aI0
aI2
aI1
aI0
aI2
aI0
aI2
aI1
aI0
aI1
aI0
aI0
aI2
aI1
aI1
aI0
aI1
aI1
aI0
aI1
aI1
aI1
aI1
aI1
aI1
aI0
aI1
aI1
aI2
aI1
aI0
aI2
aI2
aI1
aI1
asg15
(lp907
I2
aI1
aI1
aI0
aI1
aI1
aI1
aI2
aI1
aI2
aI1
aI2
aI0
aI1
aI1
aI0
aI1
aI1
aI0
aI2
aI1
aI0
aI2
aI0
aI2
aI1
aI0
aI1
aI0
aI0
aI2
aI1
aI1
aI0
aI1
aI1
aI0
aI1
aI1
aI1
aI1
aI1
aI1
aI0
aI1
aI1
aI2
aI1
aI0
aI2
aI2
aI1
aI1
asg17
I00
sg18
F0.96226415094339623
sg19
F0.48841247542700333
sg20
I268
sg21
I78
sg22
(lp908
I97
aI22
aI14
aI1
aI81
asg24
I51
sg25
I0
sg26
(lp909
I28
aI77
aI29
aI59
aI22
aI33
aI56
aI8
aI93
aI6
aI24
aI5
aI7
aI41
aI36
aI75
aI66
aI19
aI48
aI35
aI81
aI57
aI9
aI15
aI20
aI80
aI46
aI99
aI29
aI50
aI33
aI19
aI99
aI72
aI28
aI12
aI57
aI59
aI77
aI72
aI76
aI26
aI61
aI19
aI77
aI14
aI74
aI68
aI97
aI22
aI14
aI1
aI81
asg28
(lp910
I53
aI55
aI53
aI56
aI55
aI47
aI57
aI55
aI49
aI50
aI59
aI56
aI50
aI52
aI51
asg30
F0.94776343845106858
sg31
I275
sg32
F1010.6096938618064
sg33
F992.93273158296336
sg34
I162
sbag310
a(iDraughtCEMadmin
Player
p911
(dp912
g11
g638
sg13
(lp913
I0
aI2
aI0
aI1
aI1
aI1
aI0
aI0
aI1
aI2
aI0
aI1
aI1
aI1
aI0
aI1
aI2
aI2
aI1
aI1
aI1
aI0
aI0
aI1
aI1
aI1
aI1
aI1
aI2
aI1
asg15
(lp914
I0
aI2
aI0
aI1
aI1
aI1
aI0
aI0
aI1
aI2
aI0
aI1
aI1
aI1
aI0
aI1
aI2
aI2
aI1
aI1
aI1
aI0
aI0
aI1
aI1
aI1
aI1
aI1
aI2
aI1
asg17
I00
sg18
F0.90000000000000002
sg19
F1.6721975047965545
sg20
I166
sg21
I80
sg22
(lp915
I5
aI78
aI87
aI76
aI13
aI77
asg24
I27
sg25
I0
sg26
(lp916
I30
aI39
aI77
aI31
aI37
aI55
aI64
aI63
aI82
aI44
aI56
aI95
aI59
aI40
aI48
aI39
aI4
aI44
aI33
aI40
aI89
aI13
aI42
aI21
aI5
aI78
aI87
aI76
aI13
aI77
asg28
(lp917
I26
aI28
aI27
aI28
aI27
aI23
aI30
aI28
aI25
aI25
aI31
aI28
aI27
aI26
aI24
aI31
aI28
aI28
aI27
aI25
aI27
asg30
F0.85178237148626856
sg31
I135
sg32
F969.52433705061799
sg33
F919.31830950744904
sg34
I112
sba(iDraughtCEMadmin
Player
p918
(dp919
g11
g653
sg13
(lp920
I1
aI1
aI1
aI1
aI0
aI0
aI1
aI2
aI1
aI1
aI1
aI1
aI1
aI1
aI1
aI1
aI2
aI1
aI2
aI1
aI1
aI2
aI1
aI1
aI1
aI1
aI0
aI1
aI0
aI1
aI0
aI1
aI2
aI1
aI0
aI1
aI1
aI2
aI1
aI1
aI1
aI2
aI2
aI0
aI0
aI1
aI2
aI0
aI1
aI0
aI1
aI0
aI1
aI1
aI1
aI0
aI2
aI1
aI1
aI1
aI0
aI2
aI2
asg15
(lp921
I1
aI1
aI1
aI1
aI0
aI0
aI1
aI2
aI1
aI1
aI1
aI1
aI1
aI1
aI1
aI1
aI2
aI1
aI2
aI1
aI1
aI2
aI1
aI1
aI1
aI1
aI0
aI1
aI0
aI1
aI0
aI1
aI2
aI1
aI0
aI1
aI1
aI2
aI1
aI1
aI1
aI2
aI2
aI0
aI0
aI1
aI2
aI0
aI1
aI0
aI1
aI0
aI1
aI1
aI1
aI0
aI2
aI1
aI1
aI1
aI0
aI2
aI2
asg17
I00
sg18
F0.98412698412698407
sg19
F0.47501542459656321
sg20
I316
sg21
I81
sg22
(lp922
I23
aI2
aI51
aI46
aI22
asg24
I62
sg25
I0
sg26
(lp923
I31
aI88
aI26
aI60
aI12
aI11
aI15
aI54
aI55
aI13
aI69
aI89
aI66
aI53
aI28
aI6
aI60
aI30
aI91
aI78
aI46
aI26
aI0
aI91
aI13
aI49
aI61
aI24
aI44
aI36
aI62
aI70
aI16
aI32
aI87
aI50
aI75
aI67
aI49
aI70
aI87
aI30
aI76
aI24
aI55
aI96
aI31
aI52
aI52
aI0
aI51
aI78
aI30
aI15
aI70
aI68
aI14
aI23
aI2
aI51
aI9
aI46
aI22
asg28
(lp924
I62
aI64
aI63
aI66
aI65
aI60
aI67
aI66
aI61
aI57
aI67
aI67
aI62
aI59
aI61
asg30
F0.97059610776205341
sg31
I255
sg32
F1012.8351013092264
sg33
F1003.0912124878574
sg34
I192
sba(iDraughtCEMadmin
Player
p925
(dp926
g11
g638
sg13
(lp927
I0
aI0
aI1
aI1
aI1
aI0
aI0
aI1
aI1
aI1
aI1
aI1
aI1
aI1
aI1
aI0
aI1
aI1
aI1
aI2
aI1
aI1
aI1
aI1
asg15
(lp928
I0
aI0
aI1
aI1
aI1
aI0
aI0
aI1
aI1
aI1
aI1
aI1
aI1
aI1
aI1
aI0
aI1
aI1
aI1
aI2
aI1
aI1
aI1
aI1
asg17
I00
sg18
F0.83333333333333337
sg19
F2.263451606615138
sg20
I126
sg21
I82
sg22
(lp929
I23
aI71
aI39
aI34
aI60
aI92
asg24
I20
sg25
I0
sg26
(lp930
I32
aI40
aI73
aI18
aI84
aI80
aI73
aI25
aI11
aI18
aI43
aI44
aI25
aI35
aI38
aI95
aI91
aI4
aI23
aI71
aI39
aI34
aI60
aI92
asg28
(lp931
I19
aI20
aI19
aI22
aI20
aI17
aI23
aI20
aI18
aI18
aI24
aI22
aI18
aI18
aI20
aI25
aI23
aI19
aI18
aI21
aI20
asg30
F0.77037482386244638
sg31
I58
sg32
F933.2510822454974
sg33
F854.28626778596117
sg34
I84
sbag287
ag191
a(iDraughtCEMadmin
Player
p932
(dp933
g11
g638
sg13
(lp934
I1
aI1
aI1
aI2
aI1
aI1
aI2
aI1
aI0
aI1
aI1
aI1
aI1
aI1
aI0
aI0
aI0
aI2
aI0
aI1
aI0
aI1
aI1
aI1
aI0
aI1
aI0
aI2
aI1
aI0
asg15
(lp935
I1
aI1
aI1
aI2
aI1
aI1
aI2
aI1
aI0
aI1
aI1
aI1
aI1
aI1
aI0
aI0
aI0
aI2
aI0
aI1
aI0
aI1
aI1
aI1
aI0
aI1
aI0
aI2
aI1
aI0
asg17
I00
sg18
F0.83333333333333337
sg19
F-1.2041991280049389
sg20
I167
sg21
I85
sg22
(lp936
I59
aI53
aI54
aI21
aI42
aI71
asg24
I25
sg25
I0
sg26
(lp937
I35
aI94
aI99
aI37
aI63
aI90
aI37
aI3
aI79
aI30
aI64
aI99
aI95
aI73
aI14
aI32
aI60
aI48
aI65
aI75
aI74
aI38
aI73
aI28
aI59
aI53
aI54
aI21
aI42
aI71
asg28
(lp938
I27
aI29
aI28
aI30
aI30
aI23
aI30
aI31
aI23
aI21
aI32
aI32
aI24
aI23
aI25
aI33
aI32
aI25
aI24
aI26
aI27
asg30
F0.86680934820370481
sg31
I191
sg32
F984.56438920634685
sg33
F936.8084313583912
sg34
I113
sbag400
a(iDraughtCEMadmin
Player
p939
(dp940
g11
g638
sg13
(lp941
I1
aI1
aI0
aI1
aI2
aI1
aI0
aI2
aI1
aI1
aI0
aI0
aI1
aI0
aI1
aI1
aI0
aI1
aI2
aI0
aI2
aI0
aI1
aI1
aI1
aI1
aI1
aI2
aI2
aI1
aI1
aI2
aI0
aI1
aI2
aI1
aI2
aI1
aI0
aI2
aI1
aI0
aI1
aI1
aI1
aI1
aI1
aI1
asg15
(lp942
I1
aI1
aI0
aI1
aI2
aI1
aI0
aI2
aI1
aI1
aI0
aI0
aI1
aI0
aI1
aI1
aI0
aI1
aI2
aI0
aI2
aI0
aI1
aI1
aI1
aI1
aI1
aI2
aI2
aI1
aI1
aI2
aI0
aI1
aI2
aI1
aI2
aI1
aI0
aI2
aI1
aI0
aI1
aI1
aI1
aI1
aI1
aI1
asg17
I00
sg18
F0.97916666666666663
sg19
F0.88485507603294311
sg20
I294
sg21
I87
sg22
(lp943
I18
aI53
aI71
aI10
aI99
aI26
asg24
I47
sg25
I0
sg26
(lp944
I0
aI62
aI68
aI84
aI20
aI93
aI9
aI53
aI18
aI56
aI93
aI24
aI55
aI91
aI13
aI39
aI37
aI43
aI15
aI19
aI25
aI98
aI21
aI37
aI51
aI67
aI80
aI95
aI71
aI69
aI55
aI45
aI16
aI69
aI1
aI81
aI66
aI2
aI96
aI69
aI51
aI81
aI18
aI53
aI71
aI10
aI99
aI26
asg28
(lp945
I47
aI49
aI48
aI50
aI50
aI44
aI51
aI51
aI44
aI45
aI52
aI52
aI45
aI47
aI46
aI53
aI53
aI46
aI48
aI47
aI47
asg30
F0.95432605944496929
sg31
I295
sg32
F993.55843708872237
sg33
F978.5634914044258
sg34
I197
sba(iDraughtCEMadmin
Player
p946
(dp947
g11
g638
sg13
(lp948
I2
aI1
aI1
aI1
aI2
aI0
aI1
aI0
aI2
aI1
aI2
aI2
aI0
aI0
aI0
aI0
aI1
aI0
aI1
aI0
aI2
aI1
aI0
aI0
aI0
aI0
aI1
aI1
aI1
aI1
aI2
aI1
aI1
aI1
aI0
aI0
asg15
(lp949
I2
aI1
aI1
aI1
aI2
aI0
aI1
aI0
aI2
aI1
aI2
aI2
aI0
aI0
aI0
aI0
aI1
aI0
aI1
aI0
aI2
aI1
aI0
aI0
aI0
aI0
aI1
aI1
aI1
aI1
aI2
aI1
aI1
aI1
aI0
aI0
asg17
I00
sg18
F0.80555555555555558
sg19
F-0.80117711391026214
sg20
I197
sg21
I88
sg22
(lp950
I49
aI14
aI60
aI13
aI98
aI89
asg24
I29
sg25
I0
sg26
(lp951
I38
aI81
aI64
aI83
aI53
aI20
aI92
aI70
aI27
aI52
aI93
aI24
aI49
aI16
aI75
aI72
aI73
aI1
aI49
aI84
aI34
aI47
aI32
aI91
aI23
aI33
aI21
aI92
aI60
aI89
aI49
aI14
aI60
aI13
aI98
aI89
asg28
(lp952
I31
aI31
aI33
aI32
aI34
aI28
aI34
aI35
aI29
aI29
aI35
aI35
aI29
aI31
aI32
aI36
aI35
aI30
aI33
aI33
aI30
asg30
F0.82912284934413338
sg31
I236
sg32
F993.11918368287638
sg33
F932.36102770806872
sg34
I133
sba(iDraughtCEMadmin
Player
p953
(dp954
g11
g638
sg13
(lp955
I1
aI1
aI1
aI1
aI2
aI0
aI1
aI2
aI0
aI1
aI0
aI1
aI1
aI1
aI0
aI1
aI1
aI1
aI0
aI2
aI1
aI2
aI0
aI1
aI1
aI0
aI1
aI0
aI0
aI1
aI1
aI0
aI1
aI1
aI0
aI2
asg15
(lp956
I1
aI1
aI1
aI1
aI2
aI0
aI1
aI2
aI0
aI1
aI0
aI1
aI1
aI1
aI0
aI1
aI1
aI1
aI0
aI2
aI1
aI2
aI0
aI1
aI1
aI0
aI1
aI0
aI0
aI1
aI1
aI0
aI1
aI1
aI0
aI2
asg17
I00
sg18
F0.83333333333333337
sg19
F-1.0023209195980485
sg20
I195
sg21
I89
sg22
(lp957
I74
aI9
aI13
aI60
aI42
aI88
asg24
I30
sg25
I0
sg26
(lp958
I39
aI1
aI51
aI97
aI99
aI24
aI48
aI30
aI8
aI47
aI96
aI81
aI15
aI52
aI72
aI58
aI73
aI59
aI7
aI80
aI73
aI27
aI50
aI26
aI8
aI13
aI47
aI58
aI92
aI88
aI74
aI9
aI13
aI60
aI42
aI88
asg28
(lp959
I32
aI32
aI34
aI32
aI35
aI28
aI32
aI36
aI29
aI29
aI33
aI37
aI31
aI29
aI31
aI33
aI39
aI33
aI30
aI31
aI29
asg30
F0.8611063812408567
sg31
I197
sg32
F982.11947686258225
sg33
F932.54661513896485
sg34
I128
sbag63
a(iDraughtCEMadmin
Player
p960
(dp961
g11
g638
sg13
(lp962
I0
aI0
aI1
aI1
aI1
aI1
aI1
aI0
aI2
aI0
aI1
aI1
aI1
aI1
aI1
aI1
aI0
aI2
aI2
aI1
aI1
aI0
aI1
aI2
aI1
aI0
aI1
aI1
aI1
aI2
asg15
(lp963
I0
aI0
aI1
aI1
aI1
aI1
aI1
aI0
aI2
aI0
aI1
aI1
aI1
aI1
aI1
aI1
aI0
aI2
aI2
aI1
aI1
aI0
aI1
aI2
aI1
aI0
aI1
aI1
aI1
aI2
asg17
I00
sg18
F0.93333333333333335
sg19
F1.3623055089036258
sg20
I170
sg21
I91
sg22
(lp964
I81
aI15
aI42
aI71
aI77
aI98
asg24
I28
sg25
I0
sg26
(lp965
I41
aI45
aI9
aI74
aI68
aI15
aI25
aI19
aI31
aI36
aI59
aI21
aI87
aI74
aI95
aI95
aI82
aI37
aI66
aI81
aI72
aI48
aI38
aI88
aI81
aI15
aI42
aI71
aI77
aI98
asg28
(lp966
I27
aI28
aI29
aI28
aI30
aI24
aI29
aI32
aI24
aI25
aI29
aI33
aI25
aI25
aI26
aI30
aI34
aI26
aI27
aI27
aI26
asg30
F0.89595763648300575
sg31
I106
sg32
F972.3500318820229
sg33
F937.43303230189031
sg34
I112
sba(iDraughtCEMadmin
Player
p967
(dp968
g11
g638
sg13
(lp969
I0
aI1
aI1
aI2
aI0
aI0
aI1
aI1
aI1
aI2
aI1
aI1
aI0
aI1
aI1
aI1
aI1
aI1
aI0
aI1
aI0
aI1
aI1
aI1
aI0
aI1
aI0
aI1
aI0
aI1
asg15
(lp970
I0
aI1
aI1
aI2
aI0
aI0
aI1
aI1
aI1
aI2
aI1
aI1
aI0
aI1
aI1
aI1
aI1
aI1
aI0
aI1
aI0
aI1
aI1
aI1
aI0
aI1
aI0
aI1
aI0
aI1
asg17
I00
sg18
F0.76666666666666672
sg19
F-1.1443242713669974
sg20
I162
sg21
I92
sg22
(lp971
I53
aI3
aI34
aI88
aI21
aI95
asg24
I23
sg25
I0
sg26
(lp972
I42
aI47
aI3
aI66
aI34
aI88
aI36
aI19
aI55
aI34
aI30
aI29
aI17
aI48
aI34
aI75
aI45
aI28
aI39
aI37
aI82
aI53
aI3
aI34
aI88
aI21
aI89
aI95
aI95
aI95
asg28
(lp973
I27
aI28
aI27
aI30
aI28
aI22
aI31
aI30
aI24
aI22
aI32
aI31
aI25
aI23
aI23
aI32
aI31
aI26
aI24
aI24
aI25
asg30
F0.7995814164381867
sg31
I105
sg32
F954.30329046039253
sg33
F882.57095890269534
sg34
I108
sbag214
ag70
a(iDraughtCEMadmin
Player
p974
(dp975
g11
g638
sg13
(lp976
I1
aI0
aI1
aI0
aI1
aI1
aI1
aI1
aI1
aI0
aI1
aI1
aI1
aI1
aI1
aI0
aI1
aI1
aI2
aI1
aI1
aI1
aI2
aI0
aI0
aI1
aI1
aI0
aI1
aI1
asg15
(lp977
I1
aI0
aI1
aI0
aI1
aI1
aI1
aI1
aI1
aI0
aI1
aI1
aI1
aI1
aI1
aI0
aI1
aI1
aI2
aI1
aI1
aI1
aI2
aI0
aI0
aI1
aI1
aI0
aI1
aI1
asg17
I00
sg18
F0.83333333333333337
sg19
F0.0044509974924721975
sg20
I166
sg21
I95
sg22
(lp978
I7
aI10
aI28
aI87
aI54
aI92
asg24
I25
sg25
I0
sg26
(lp979
I45
aI7
aI68
aI47
aI69
aI80
aI85
aI98
aI26
aI54
aI37
aI82
aI91
aI91
aI38
aI38
aI99
aI46
aI98
aI42
aI54
aI61
aI7
aI10
aI28
aI87
aI54
aI92
aI92
aI92
asg28
(lp980
I27
aI28
aI28
aI28
aI29
aI23
aI28
aI30
aI25
aI25
aI30
aI31
aI26
aI27
aI24
aI31
aI32
aI27
aI28
aI25
aI23
asg30
F0.83280997399912293
sg31
I106
sg32
F948.96066141298149
sg33
F890.32685243554931
sg34
I111
sbag198
ag262
a(iDraughtCEMadmin
Player
p981
(dp982
g11
g638
sg13
(lp983
I2
aI0
aI1
aI1
aI0
aI1
aI1
aI1
aI1
aI2
aI1
aI2
aI1
aI1
aI1
aI0
aI0
aI0
aI1
aI0
aI1
aI2
aI1
aI1
aI0
aI1
aI1
aI2
aI0
aI0
aI2
aI0
aI1
aI1
aI2
aI1
asg15
(lp984
I2
aI0
aI1
aI1
aI0
aI1
aI1
aI1
aI1
aI2
aI1
aI2
aI1
aI1
aI1
aI0
aI0
aI0
aI1
aI0
aI1
aI2
aI1
aI1
aI0
aI1
aI1
aI2
aI0
aI0
aI2
aI0
aI1
aI1
aI2
aI1
asg17
I00
sg18
F0.91666666666666663
sg19
F0.63709760353229972
sg20
I205
sg21
I98
sg22
(lp985
I53
aI66
aI28
aI47
aI88
aI69
asg24
I33
sg25
I0
sg26
(lp986
I48
aI86
aI1
aI57
aI47
aI75
aI30
aI29
aI13
aI26
aI10
aI54
aI4
aI95
aI27
aI56
aI53
aI6
aI11
aI86
aI95
aI87
aI58
aI13
aI57
aI26
aI58
aI42
aI56
aI91
aI53
aI66
aI28
aI47
aI88
aI69
asg28
(lp987
I32
aI32
aI35
aI34
aI36
aI29
aI35
aI38
aI31
aI30
aI37
aI39
aI32
aI30
aI29
aI38
aI40
aI33
aI31
aI29
aI34
asg30
F0.89881147922310067
sg31
I174
sg32
F983.17941613663038
sg33
F948.53928770483969
sg34
I136
sbag375
asS'ScorePoules'
p988
(lp989
(iDraughtCEMadmin
ScorePoule
p990
(dp991
S'added_players'
p992
(lp993
sS'previous_added'
p994
(lp995
sS'score'
p996
I86
sS'current_members'
p997
(lp998
sba(iDraughtCEMadmin
ScorePoule
p999
(dp1000
g992
(lp1001
sg994
(lp1002
g38
asg996
I85
sg997
(lp1003
sba(iDraughtCEMadmin
ScorePoule
p1004
(dp1005
g992
(lp1006
sg994
(lp1007
g38
ag54
asg996
I84
sg997
(lp1008
sba(iDraughtCEMadmin
ScorePoule
p1009
(dp1010
g992
(lp1011
sg994
(lp1012
g38
ag54
asg996
I83
sg997
(lp1013
sba(iDraughtCEMadmin
ScorePoule
p1014
(dp1015
g992
(lp1016
g38
ag54
asg994
(lp1017
sg996
I82
sg997
(lp1018
g38
ag54
ag47
ag9
asba(iDraughtCEMadmin
ScorePoule
p1019
(dp1020
g992
(lp1021
sg994
(lp1022
sg996
I81
sg997
(lp1023
g70
ag63
asba(iDraughtCEMadmin
ScorePoule
p1024
(dp1025
g992
(lp1026
sg994
(lp1027
sg996
I80
sg997
(lp1028
g86
ag79
asba(iDraughtCEMadmin
ScorePoule
p1029
(dp1030
g992
(lp1031
sg994
(lp1032
sg996
I79
sg997
(lp1033
g102
ag118
ag111
ag95
asba(iDraughtCEMadmin
ScorePoule
p1034
(dp1035
g992
(lp1036
sg994
(lp1037
sg996
I78
sg997
(lp1038
g134
ag150
ag166
ag182
ag175
ag159
ag127
ag143
asba(iDraughtCEMadmin
ScorePoule
p1039
(dp1040
g992
(lp1041
sg994
(lp1042
sg996
I77
sg997
(lp1043
g198
ag214
ag207
ag191
asba(iDraughtCEMadmin
ScorePoule
p1044
(dp1045
g992
(lp1046
sg994
(lp1047
sg996
I76
sg997
(lp1048
g230
ag246
ag239
ag223
asba(iDraughtCEMadmin
ScorePoule
p1049
(dp1050
g992
(lp1051
g262
asg994
(lp1052
sg996
I75
sg997
(lp1053
g262
ag255
asba(iDraughtCEMadmin
ScorePoule
p1054
(dp1055
g992
(lp1056
g278
asg994
(lp1057
sg996
I74
sg997
(lp1058
g278
ag294
ag287
ag271
asba(iDraughtCEMadmin
ScorePoule
p1059
(dp1060
g992
(lp1061
sg994
(lp1062
sg996
I73
sg997
(lp1063
g310
ag326
ag319
ag342
ag335
ag303
asba(iDraughtCEMadmin
ScorePoule
p1064
(dp1065
g992
(lp1066
sg994
(lp1067
sg996
I72
sg997
(lp1068
g358
ag351
asba(iDraughtCEMadmin
ScorePoule
p1069
(dp1070
g992
(lp1071
sg994
(lp1072
sg996
I71
sg997
(lp1073
g375
ag391
ag384
ag368
asba(iDraughtCEMadmin
ScorePoule
p1074
(dp1075
g992
(lp1076
sg994
(lp1077
sg996
I70
sg997
(lp1078
sba(iDraughtCEMadmin
ScorePoule
p1079
(dp1080
g992
(lp1081
g407
asg994
(lp1082
g423
asg996
I69
sg997
(lp1083
g407
ag400
asba(iDraughtCEMadmin
ScorePoule
p1084
(dp1085
g992
(lp1086
sg994
(lp1087
g423
asg996
I68
sg997
(lp1088
sba(iDraughtCEMadmin
ScorePoule
p1089
(dp1090
g992
(lp1091
g423
asg994
(lp1092
sg996
I67
sg997
(lp1093
g423
ag416
asbasS'NrGames'
p1094
I2859
sS'ParameterList'
p1095
(lp1096
(iDraughtCEMcalc
ParameterRecord
p1097
(dp1098
S'sigma'
p1099
F0.062255567500568668
sS'name'
p1100
S'king'
p1101
sS'mean'
p1102
F0.020943629378905607
sba(iDraughtCEMcalc
ParameterRecord
p1103
(dp1104
g1099
F0.37663452099479322
sg1100
S'man_position'
p1105
sg1102
F-0.36573446975329577
sba(iDraughtCEMcalc
ParameterRecord
p1106
(dp1107
g1099
F0.62764458921661515
sg1100
S'king_position'
p1108
sg1102
F-0.31302063277125497
sba(iDraughtCEMcalc
ParameterRecord
p1109
(dp1110
g1099
F0.46520692668857055
sg1100
S'row'
p1111
sg1102
F-0.40869756211977065
sba(iDraughtCEMcalc
ParameterRecord
p1112
(dp1113
g1099
F0.96615555741126558
sg1100
S'man_locked_bonus'
p1114
sg1102
F-0.10881440037340784
sba(iDraughtCEMcalc
ParameterRecord
p1115
(dp1116
g1099
F0.32083747306105731
sg1100
S'avoid_4641'
p1117
sg1102
F-0.55104102445723435
sba(iDraughtCEMcalc
ParameterRecord
p1118
(dp1119
g1099
F0.55995448461821606
sg1100
S'avoid_2324'
p1120
sg1102
F-0.56071094812453393
sba(iDraughtCEMcalc
ParameterRecord
p1121
(dp1122
g1099
F0.7452801651503046
sg1100
S'avoid_2335'
p1123
sg1102
F0.1164703561671359
sba(iDraughtCEMcalc
ParameterRecord
p1124
(dp1125
g1099
F0.70398841887911912
sg1100
S'2_8_13'
p1126
sg1102
F-0.40691544278496145
sba(iDraughtCEMcalc
ParameterRecord
p1127
(dp1128
g1099
F0.74443582649166684
sg1100
S'253035'
p1129
sg1102
F-0.25620734923897087
sba(iDraughtCEMcalc
ParameterRecord
p1130
(dp1131
g1099
F0.77757879179654488
sg1100
S'klassiek'
p1132
sg1102
F-0.27954170224799219
sba(iDraughtCEMcalc
ParameterRecord
p1133
(dp1134
g1099
F0.26061778612953218
sg1100
S'tempi'
p1135
sg1102
F-0.65722719923306749
sba(iDraughtCEMcalc
ParameterRecord
p1136
(dp1137
g1099
F0.48965956075239814
sg1100
S'ketting_stelling'
p1138
sg1102
F-0.22471495890383777
sba(iDraughtCEMcalc
ParameterRecord
p1139
(dp1140
g1099
F0.64422251346536252
sg1100
S'ketting_stelling_2'
p1141
sg1102
F-0.46981656457422016
sba(iDraughtCEMcalc
ParameterRecord
p1142
(dp1143
g1099
F0.53417954782429122
sg1100
S'halve_hek'
p1144
sg1102
F-0.38661552959029083
sba(iDraughtCEMcalc
ParameterRecord
p1145
(dp1146
g1099
F0.80675936302208984
sg1100
S'active_15'
p1147
sg1102
F-0.4360219729908113
sba(iDraughtCEMcalc
ParameterRecord
p1148
(dp1149
g1099
F1.2497724090434987
sg1100
S'slechte_binding'
p1150
sg1102
F-3.0883682886141948
sba(iDraughtCEMcalc
ParameterRecord
p1151
(dp1152
g1099
F0.30600974042746915
sg1100
S'free_path'
p1153
sg1102
F-0.16444320349317273
sba(iDraughtCEMcalc
ParameterRecord
p1154
(dp1155
g1099
F0.38454318799862502
sg1100
S'fit'
p1156
sg1102
F-0.30487125935656406
sba(iDraughtCEMcalc
ParameterRecord
p1157
(dp1158
g1099
F0.5753383716326812
sg1100
S'edge_35'
p1159
sg1102
F-0.32648992331029003
sba(iDraughtCEMcalc
ParameterRecord
p1160
(dp1161
g1099
F0.48370653013791642
sg1100
S'edge_36'
p1162
sg1102
F0.30748884968796386
sba(iDraughtCEMcalc
ParameterRecord
p1163
(dp1164
g1099
F0.82252844330708796
sg1100
S'11_16_17'
p1165
sg1102
F-0.24595924063313007
sba(iDraughtCEMcalc
ParameterRecord
p1166
(dp1167
g1099
F0.16220804901163605
sg1100
S'voorpost'
p1168
sg1102
F-0.61950503238177845
sba(iDraughtCEMcalc
ParameterRecord
p1169
(dp1170
g1099
F0.79966119952996273
sg1100
S'locked'
p1171
sg1102
F-0.57335360252375633
sba(iDraughtCEMcalc
ParameterRecord
p1172
(dp1173
g1099
F0.58189984883098267
sg1100
S'vleugel_opsluiting'
p1174
sg1102
F-0.39837865422584157
sba(iDraughtCEMcalc
ParameterRecord
p1175
(dp1176
g1099
F0.6248057152049219
sg1100
S'tandem'
p1177
sg1102
F-0.61131447602958455
sba(iDraughtCEMcalc
ParameterRecord
p1178
(dp1179
g1099
F1.1048663187416379
sg1100
S'mobility'
p1180
sg1102
F-0.79508416178911701
sba(iDraughtCEMcalc
ParameterRecord
p1181
(dp1182
g1099
F0.52857530386898466
sg1100
S'maze_penalty'
p1183
sg1102
F-0.26520714280100605
sba(iDraughtCEMcalc
ParameterRecord
p1184
(dp1185
g1099
F1.073759747290665
sg1100
S'canon'
p1186
sg1102
F0.5721333606441984
sbasS'Players'
p1187
(lp1188
g38
ag54
ag9
ag47
ag63
ag70
ag86
ag118
ag79
ag102
ag143
ag95
ag134
ag111
ag166
ag175
ag182
ag159
ag207
ag127
ag191
ag230
ag150
ag262
ag214
ag198
ag239
ag246
ag278
ag255
ag294
ag223
ag326
ag335
ag287
ag271
ag310
ag303
ag342
ag319
ag351
ag391
ag368
ag384
ag375
ag423
ag407
ag400
asS'NrPlayers'
p1189
I100
sS'avg_std_dev'
p1190
F0.0
sS'decay_poule_size'
p1191
(itest_log_decay_poule_size
DecayPouleSize
p1192
(dp1193
S'N0'
p1194
F80.0
sS'third_std_dev'
p1195
F89.803502798852222
sS'T'
p1196
F262.0
sS'lamba'
p1197
I5
sS'start_poule_size'
p1198
I100
sS'nr_of_rounds_needed'
p1199
I262
sbsS'NrRounds'
p1200
I5
sS'Round'
p1201
I5
sS'PairingMode'
p1202
S'pairing'
p1203
sS'PouleSize'
p1204
I48
sS'Series'
p1205
I2
sS'MinLevel'
p1206
I0
sS'TopTen'
p1207
(lp1208
(lp1209
I46
aI94
aI20
aI5
aI86
aI42
aI62
aI0
aI79
aI32
aa(lp1210
I94
aI0
aI20
aI97
aI79
aI86
aI63
aI78
aI2
aI62
aa(lp1211
I94
aI20
aI97
aI0
aI22
aI79
aI62
aI52
aI63
aI83
aa(lp1212
I94
aI79
aI62
aI20
aI52
aI63
aI2
aI83
aI97
aI30
aa(lp1213
I94
aI79
aI20
aI62
aI97
aI84
aI63
aI52
aI83
aI2
aa(lp1214
I94
aI79
aI20
aI84
aI83
aI63
aI2
aI97
aI62
aI52
aa(lp1215
I94
aI79
aI83
aI20
aI84
aI63
aI11
aI97
aI90
aI2
aa(lp1216
I94
aI79
aI83
aI20
aI84
aI11
aI90
aI63
aI2
aI62
aa(lp1217
I94
aI20
aI83
aI11
aI79
aI84
aI90
aI63
aI2
aI97
aa(lp1218
I94
aI11
aI20
aI84
aI79
aI90
aI83
aI63
aI52
aI65
aa(lp1219
I94
aI11
aI20
aI52
aI90
aI84
aI64
aI79
aI63
aI83
aa(lp1220
I94
aI11
aI20
aI52
aI64
aI90
aI84
aI79
aI63
aI40
aa(lp1221
I94
aI11
aI52
aI64
aI20
aI90
aI84
aI5
aI63
aI40
aasS'CurrentTable'
p1222
I25
sS'TotNrOfRounds'
p1223
I73
sS'main'
p1224
NsS'avg_05_10_15_diff'
p1225
(lp1226
F21.056021592980869
aF25.64477764919161
aF24.025950849344781
aF23.815864740849975
aF23.530638805728131
aF16.016923317269857
aF13.139615004726693
aF11.605949259707359
aF11.099316218764898
aF8.8101460401296663
aF8.4088490427138822
aF8.7836729908801772
aF9.3134179550993395
asb.