(iLiveDraughtsBlind
BlindData
p0
(dp1
S'status'
p2
S'known'
p3
sS'analyze_queue'
p4
(lp5
I17
asS'finished'
p6
(lp7
I27
aI20
aI22
aI21
aI10
aI9
aI16
aI3
aI24
aI1
aI4
aI7
aI13
aI25
aI5
aI6
aI15
aI19
aI2
aI26
aI11
aI12
aI23
aI28
aI14
aI18
asS'actual'
p8
I17
sS'ply_nr'
p9
(lp10
I0
aI81
aI97
aI83
aI82
aI89
aI79
aI85
aI111
aI77
aI71
aI105
aI109
aI82
aI107
aI80
aI82
aI121
aI113
aI91
aI81
aI73
aI65
aI96
aI83
aI92
aI101
aI37
aI109
asb.