(dp1
I0
(irpdb2
CBreakPoint
p2
(dp3
S'm_id'
p4
I0
sS'm_scope_first_line'
p5
I111
sS'm_fEnabled'
p6
I01
sS'm_code'
p7
NsS'm_fTemporary'
p8
I00
sS'm_scope_offset'
p9
I1
sS'm_scope_fqn'
p10
S'?.ReadPDN.GetCloseBracket'
p11
sS'm_lineno'
p12
I112
sS'm_filename'
p13
S'c:\\documents and settings\\feike\\mijn documenten\\boomstradam\\project.3.1\\py-files\\draughtreadpdn.py'
p14
sS'm_scope_name'
p15
S'GetCloseBracket'
p16
sS'm_expr'
p17
S''
sbs.