(iDraughtCEMadmin
SwissTournament
p0
(dp1
S'status'
p2
S'play next game'
p3
sS'Tables'
p4
(lp5
(iDraughtCEMadmin
Table
p6
(dp7
S'playerB'
p8
(iDraughtCEMadmin
Player
p9
(dp10
S'sort_style'
p11
S'pairing on rating'
p12
sS'results_ever'
p13
(lp14
I1
aI1
aI2
aI0
aI2
aI2
aI2
aI1
aI0
aI1
aI1
aI2
aI2
aI1
aI1
aI2
aI1
aI0
aI2
aI1
aI2
aI1
aI1
aI2
aI1
aI1
aI1
aI1
aI0
aI1
aI0
aI1
aI2
aI2
aI1
aI1
aI1
aI2
aI1
aI2
aI1
aI2
aI1
aI2
aI1
aI1
aI0
aI0
aI1
aI0
aI1
aI2
aI1
aI0
aI1
aI2
aI1
aI2
aI0
aI1
aI1
aI0
aI0
aI2
aI1
aI1
aI2
aI0
aI2
aI1
aI2
aI1
aI0
aI1
aI1
aI1
aI1
aI1
aI2
aI1
aI1
aI2
aI1
aI0
aI1
aI1
aI0
aI1
aI2
aI1
aI1
aI2
aI0
aI1
aI1
aI2
aI2
aI2
aI1
aI1
aI1
aI2
aI1
aI0
aI1
aI2
aI2
aI1
aI0
aI1
aI1
aI1
aI1
aI1
aI1
aI1
aI2
aI2
aI0
aI2
aI1
aI2
aI2
aI0
aI1
aI1
aI2
aI1
aI1
aI1
aI1
aI1
aI2
aI1
aI2
aI1
aI1
aI2
aI0
aI1
aI1
aI1
aI1
aI1
aI1
aI2
aI1
aI1
aI0
aI0
aI0
asS'results'
p15
(lp16
I1
aI1
aI2
aI0
aI2
aI2
aI2
aI1
aI0
aI1
aI1
aI2
aI2
aI1
aI1
aI2
aI1
aI0
aI2
aI1
aI2
aI1
aI1
aI2
aI1
aI1
aI1
aI1
aI0
aI1
aI0
aI1
aI2
aI2
aI1
aI1
aI1
aI2
aI1
aI2
aI1
aI2
aI1
aI2
aI1
aI1
aI0
aI0
aI1
aI0
aI1
aI2
aI1
aI0
aI1
aI2
aI1
aI2
aI0
aI1
aI1
aI0
aI0
aI2
aI1
aI1
aI2
aI0
aI2
aI1
aI2
aI1
aI0
aI1
aI1
aI1
aI1
aI1
aI2
aI1
aI1
aI2
aI1
aI0
aI1
aI1
aI0
aI1
aI2
aI1
aI1
aI2
aI0
aI1
aI1
aI2
aI2
aI2
aI1
aI1
aI1
aI2
aI1
aI0
aI1
aI2
aI2
aI1
aI0
aI1
aI1
aI1
aI1
aI1
aI1
aI1
aI2
aI2
aI0
aI2
aI1
aI2
aI2
aI0
aI1
aI1
aI2
aI1
aI1
aI1
aI1
aI1
aI2
aI1
aI2
aI1
aI1
aI2
aI0
aI1
aI1
aI1
aI1
aI1
aI1
aI2
aI1
aI1
aI0
aI0
aI0
asS'free'
p17
I00
sS'tot_got'
p18
F1.1418918918918919
sS'DeltaRating'
p19
F0.80941340500990011
sS'wp'
p20
I567
sS'rounds'
p21
I0
sS'opponents'
p22
(lp23
I6
aI6
aI94
asS'score'
p24
I169
sS'id'
p25
I85
sS'opponents_ever'
p26
(lp27
I35
aI69
aI12
aI22
aI98
aI0
aI51
aI86
aI67
aI40
aI30
aI66
aI70
aI67
aI32
aI24
aI44
aI27
aI53
aI40
aI38
aI58
aI53
aI14
aI89
aI79
aI6
aI53
aI67
aI59
aI2
aI2
aI9
aI9
aI9
aI9
aI57
aI72
aI53
aI64
aI67
aI61
aI53
aI30
aI2
aI32
aI1
aI31
aI23
aI1
aI53
aI63
aI63
aI3
aI63
aI28
aI3
aI66
aI66
aI88
aI50
aI50
aI3
aI88
aI99
aI50
aI97
aI3
aI11
aI53
aI88
aI66
aI96
aI53
aI63
aI3
aI2
aI27
aI53
aI3
aI31
aI27
aI50
aI53
aI28
aI50
aI50
aI20
aI99
aI11
aI11
aI28
aI20
aI92
aI92
aI20
aI11
aI73
aI99
aI92
aI44
aI97
aI88
aI68
aI63
aI92
aI92
aI30
aI30
aI63
aI92
aI3
aI92
aI92
aI97
aI30
aI68
aI62
aI28
aI53
aI77
aI28
aI68
aI6
aI6
aI3
aI68
aI94
aI94
aI68
aI68
aI71
aI71
aI94
aI68
aI3
aI68
aI68
aI77
aI53
aI94
aI63
aI3
aI6
aI41
aI94
aI68
aI80
aI6
aI6
aI94
asS'opponents_score'
p28
(lp29
sS'expected'
p30
F1.1178164484717183
sS'sb'
p31
I688
sS'opp_rating'
p32
F1071.7875231264215
sS'TournamentRating'
p33
F1113.7215524813325
sS'wp_hi_lo'
p34
I343
sbsS'status'
p35
S'waiting'
p36
sS'playerA'
p37
(iDraughtCEMadmin
Player
p38
(dp39
g11
g12
sg13
(lp40
I1
aI1
aI2
aI1
aI0
aI1
aI1
aI2
aI1
aI0
aI1
aI0
aI1
aI1
aI2
aI2
aI1
aI1
aI2
aI2
aI2
aI2
aI0
aI1
aI1
aI1
aI1
aI2
aI1
aI1
aI0
aI1
aI1
aI1
aI1
aI1
aI1
aI2
aI2
aI2
aI0
aI1
aI2
aI0
aI1
aI1
aI1
aI0
aI1
aI2
aI2
aI1
aI1
aI2
aI0
aI2
aI1
aI1
aI2
aI2
aI2
aI2
aI1
aI2
aI1
aI1
aI2
aI1
aI1
aI2
aI1
aI1
aI1
aI1
aI2
aI1
aI1
aI1
aI2
aI2
aI1
aI1
aI1
aI1
aI1
aI1
aI2
aI1
aI1
aI2
aI1
aI1
aI1
aI1
aI1
aI1
aI0
aI2
aI0
aI0
aI2
aI2
aI2
aI0
aI0
aI1
aI2
aI1
aI1
aI1
aI0
aI2
aI1
aI1
aI0
aI1
aI1
aI0
aI2
aI2
aI0
aI2
aI1
aI1
aI1
aI1
aI1
aI1
aI2
aI0
aI0
aI1
aI2
aI0
aI2
aI1
aI2
aI0
aI2
aI2
aI1
aI2
aI1
aI1
aI2
aI0
aI1
aI2
aI1
aI2
aI2
asg15
(lp41
I1
aI1
aI2
aI1
aI0
aI1
aI1
aI2
aI1
aI0
aI1
aI0
aI1
aI1
aI2
aI2
aI1
aI1
aI2
aI2
aI2
aI2
aI0
aI1
aI1
aI1
aI1
aI2
aI1
aI1
aI0
aI1
aI1
aI1
aI1
aI1
aI1
aI2
aI2
aI2
aI0
aI1
aI2
aI0
aI1
aI1
aI1
aI0
aI1
aI2
aI2
aI1
aI1
aI2
aI0
aI2
aI1
aI1
aI2
aI2
aI2
aI2
aI1
aI2
aI1
aI1
aI2
aI1
aI1
aI2
aI1
aI1
aI1
aI1
aI2
aI1
aI1
aI1
aI2
aI2
aI1
aI1
aI1
aI1
aI1
aI1
aI2
aI1
aI1
aI2
aI1
aI1
aI1
aI1
aI1
aI1
aI0
aI2
aI0
aI0
aI2
aI2
aI2
aI0
aI0
aI1
aI2
aI1
aI1
aI1
aI0
aI2
aI1
aI1
aI0
aI1
aI1
aI0
aI2
aI2
aI0
aI2
aI1
aI1
aI1
aI1
aI1
aI1
aI2
aI0
aI0
aI1
aI2
aI0
aI2
aI1
aI2
aI0
aI2
aI2
aI1
aI2
aI1
aI1
aI2
aI0
aI1
aI2
aI1
aI2
aI2
asg17
I00
sg18
F1.1621621621621621
sg19
F0.42647411756270232
sg20
I580
sg21
I0
sg22
(lp42
I41
aI41
aI85
asg24
I177
sg25
I94
sg26
(lp43
I44
aI82
aI93
aI34
aI38
aI24
aI26
aI35
aI11
aI84
aI8
aI3
aI21
aI78
aI11
aI72
aI28
aI47
aI48
aI22
aI53
aI61
aI73
aI48
aI61
aI1
aI2
aI57
aI39
aI41
aI6
aI64
aI50
aI20
aI63
aI63
aI50
aI7
aI55
aI11
aI96
aI44
aI41
aI59
aI86
aI96
aI28
aI64
aI5
aI72
aI41
aI11
aI28
aI14
aI48
aI97
aI64
aI73
aI99
aI77
aI96
aI9
aI9
aI9
aI96
aI96
aI9
aI92
aI9
aI30
aI27
aI62
aI9
aI41
aI44
aI62
aI28
aI41
aI88
aI62
aI62
aI92
aI11
aI11
aI62
aI28
aI80
aI31
aI62
aI92
aI62
aI62
aI53
aI30
aI68
aI62
aI68
aI62
aI62
aI62
aI28
aI53
aI53
aI28
aI68
aI28
aI68
aI68
aI68
aI62
aI20
aI20
aI28
aI68
aI62
aI77
aI97
aI28
aI63
aI68
aI11
aI53
aI68
aI28
aI99
aI77
aI68
aI68
aI85
aI85
aI80
aI77
aI53
aI85
aI68
aI68
aI68
aI80
aI50
aI41
aI85
aI68
aI80
aI53
aI53
aI85
aI80
aI68
aI41
aI41
aI85
asg28
(lp44
sg30
F1.1507171956210422
sg31
I576
sg32
F1071.8631599658943
sg33
F1125.05614290783
sg34
I352
sbsba(iDraughtCEMadmin
Table
p45
(dp46
g8
(iDraughtCEMadmin
Player
p47
(dp48
g11
g12
sg13
(lp49
I0
aI2
aI1
aI2
aI2
aI0
aI1
aI2
aI0
aI1
aI1
aI2
aI0
aI2
aI1
aI1
aI2
aI1
aI2
aI1
aI2
aI1
aI1
aI1
aI0
aI1
aI1
aI0
aI2
aI0
aI1
aI0
aI1
aI1
aI0
aI2
aI2
aI1
aI2
aI1
aI2
aI2
aI0
aI2
aI1
aI0
aI0
aI1
aI0
aI1
aI2
aI2
aI1
aI1
aI1
aI1
aI2
aI1
aI0
aI2
aI2
aI1
aI1
aI0
aI1
aI2
aI1
aI2
aI1
aI2
aI0
aI1
aI0
aI1
aI1
aI0
aI2
aI1
aI1
aI1
aI2
aI1
aI0
aI0
aI1
aI1
aI2
aI1
aI1
aI0
aI2
aI2
aI1
aI1
aI1
aI1
aI1
aI1
aI2
aI1
aI2
aI0
aI0
aI2
aI2
aI1
aI2
aI0
aI2
aI2
aI0
aI2
aI1
aI1
aI1
aI0
aI1
aI1
aI2
aI0
aI1
aI2
aI1
aI1
aI2
aI1
aI1
aI1
aI2
aI0
aI2
aI2
aI0
aI1
aI1
aI2
aI2
aI2
aI0
aI1
aI1
aI1
aI1
aI2
aI2
aI1
aI1
aI1
aI1
aI1
asg15
(lp50
I0
aI2
aI1
aI2
aI2
aI0
aI1
aI2
aI0
aI1
aI1
aI2
aI0
aI2
aI1
aI1
aI2
aI1
aI2
aI1
aI2
aI1
aI1
aI1
aI0
aI1
aI1
aI0
aI2
aI0
aI1
aI0
aI1
aI1
aI0
aI2
aI2
aI1
aI2
aI1
aI2
aI2
aI0
aI2
aI1
aI0
aI0
aI1
aI0
aI1
aI2
aI2
aI1
aI1
aI1
aI1
aI2
aI1
aI0
aI2
aI2
aI1
aI1
aI0
aI1
aI2
aI1
aI2
aI1
aI2
aI0
aI1
aI0
aI1
aI1
aI0
aI2
aI1
aI1
aI1
aI2
aI1
aI0
aI0
aI1
aI1
aI2
aI1
aI1
aI0
aI2
aI2
aI1
aI1
aI1
aI1
aI1
aI1
aI2
aI1
aI2
aI0
aI0
aI2
aI2
aI1
aI2
aI0
aI2
aI2
aI0
aI2
aI1
aI1
aI1
aI0
aI1
aI1
aI2
aI0
aI1
aI2
aI1
aI1
aI2
aI1
aI1
aI1
aI2
aI0
aI2
aI2
aI0
aI1
aI1
aI2
aI2
aI2
aI0
aI1
aI1
aI1
aI1
aI2
aI2
aI1
aI1
aI1
aI1
aI1
asg17
I00
sg18
F1.1216216216216217
sg19
F2.1271060424250665
sg20
I568
sg21
I0
sg22
(lp51
I53
aI53
aI68
asg24
I168
sg25
I80
sg26
(lp52
I30
aI34
aI84
aI90
aI12
aI12
aI36
aI15
aI66
aI84
aI42
aI37
aI22
aI14
aI35
aI29
aI24
aI67
aI79
aI92
aI38
aI17
aI28
aI27
aI10
aI49
aI77
aI87
aI33
aI7
aI50
aI60
aI23
aI58
aI99
aI28
aI72
aI47
aI50
aI31
aI67
aI17
aI7
aI3
aI61
aI32
aI20
aI36
aI16
aI96
aI64
aI38
aI58
aI41
aI31
aI66
aI79
aI20
aI67
aI64
aI64
aI92
aI3
aI11
aI99
aI67
aI64
aI64
aI3
aI67
aI63
aI58
aI58
aI50
aI88
aI77
aI97
aI72
aI68
aI71
aI50
aI30
aI38
aI1
aI11
aI44
aI31
aI96
aI1
aI77
aI44
aI41
aI73
aI73
aI94
aI50
aI63
aI99
aI41
aI67
aI32
aI41
aI20
aI63
aI79
aI50
aI63
aI92
aI63
aI77
aI44
aI27
aI9
aI92
aI44
aI41
aI44
aI41
aI9
aI6
aI3
aI44
aI20
aI73
aI73
aI63
aI3
aI31
aI50
aI41
aI62
aI62
aI94
aI99
aI97
aI92
aI28
aI94
aI53
aI71
aI68
aI3
aI94
aI71
aI50
aI68
aI94
aI85
aI53
aI53
aI68
asg28
(lp53
sg30
F1.0623699083330116
sg31
I777
sg32
F1058.28044314412
sg33
F1082.1052387622944
sg34
I342
sbsg35
g36
sg37
(iDraughtCEMadmin
Player
p54
(dp55
g11
g12
sg13
(lp56
I1
aI1
aI1
aI0
aI2
aI1
aI1
aI2
aI2
aI1
aI0
aI1
aI2
aI2
aI1
aI1
aI1
aI0
aI1
aI1
aI2
aI1
aI1
aI1
aI1
aI1
aI1
aI2
aI0
aI2
aI2
aI1
aI0
aI1
aI1
aI2
aI1
aI0
aI0
aI2
aI2
aI2
aI1
aI2
aI1
aI2
aI0
aI2
aI0
aI1
aI2
aI1
aI1
aI2
aI1
aI0
aI1
aI1
aI2
aI1
aI2
aI1
aI1
aI1
aI0
aI1
aI2
aI1
aI2
aI2
aI0
aI1
aI2
aI1
aI1
aI1
aI2
aI2
aI1
aI1
aI2
aI1
aI1
aI2
aI1
aI2
aI0
aI1
aI2
aI1
aI1
aI2
aI1
aI0
aI1
aI1
aI2
aI1
aI1
aI1
aI1
aI0
aI1
aI2
aI1
aI1
aI0
aI1
aI1
aI1
aI1
aI0
aI0
aI1
aI2
aI1
aI1
aI1
aI1
aI1
aI1
aI2
aI1
aI2
aI1
aI1
aI0
aI2
aI1
aI1
aI2
aI1
aI0
aI2
aI1
aI1
aI0
aI0
aI1
aI1
aI1
aI0
aI2
aI1
aI2
aI1
aI1
aI0
aI1
aI2
asg15
(lp57
I1
aI1
aI1
aI0
aI2
aI1
aI1
aI2
aI2
aI1
aI0
aI1
aI2
aI2
aI1
aI1
aI1
aI0
aI1
aI1
aI2
aI1
aI1
aI1
aI1
aI1
aI1
aI2
aI0
aI2
aI2
aI1
aI0
aI1
aI1
aI2
aI1
aI0
aI0
aI2
aI2
aI2
aI1
aI2
aI1
aI2
aI0
aI2
aI0
aI1
aI2
aI1
aI1
aI2
aI1
aI0
aI1
aI1
aI2
aI1
aI2
aI1
aI1
aI1
aI0
aI1
aI2
aI1
aI2
aI2
aI0
aI1
aI2
aI1
aI1
aI1
aI2
aI2
aI1
aI1
aI2
aI1
aI1
aI2
aI1
aI2
aI0
aI1
aI2
aI1
aI1
aI2
aI1
aI0
aI1
aI1
aI2
aI1
aI1
aI1
aI1
aI0
aI1
aI2
aI1
aI1
aI0
aI1
aI1
aI1
aI1
aI0
aI0
aI1
aI2
aI1
aI1
aI1
aI1
aI1
aI1
aI2
aI1
aI2
aI1
aI1
aI0
aI2
aI1
aI1
aI2
aI1
aI0
aI2
aI1
aI1
aI0
aI0
aI1
aI1
aI1
aI0
aI2
aI1
aI2
aI1
aI1
aI0
aI1
aI2
asg17
I00
sg18
F1.1148648648648649
sg19
F-0.036467443294350234
sg20
I583
sg21
I0
sg22
(lp58
I50
aI50
aI80
asg24
I168
sg25
I68
sg26
(lp59
I18
aI31
aI15
aI26
aI56
aI73
aI11
aI4
aI71
aI5
aI63
aI18
aI51
aI11
aI5
aI1
aI63
aI69
aI95
aI22
aI58
aI23
aI72
aI30
aI69
aI64
aI47
aI63
aI72
aI25
aI60
aI61
aI2
aI1
aI36
aI7
aI38
aI79
aI66
aI47
aI7
aI64
aI41
aI50
aI44
aI38
aI5
aI41
aI50
aI53
aI38
aI48
aI9
aI28
aI11
aI32
aI66
aI50
aI92
aI55
aI2
aI63
aI53
aI97
aI66
aI41
aI9
aI30
aI71
aI28
aI20
aI73
aI31
aI92
aI79
aI80
aI20
aI97
aI41
aI28
aI44
aI73
aI28
aI62
aI62
aI30
aI30
aI62
aI62
aI73
aI9
aI94
aI94
aI62
aI28
aI62
aI30
aI30
aI94
aI62
aI85
aI94
aI28
aI94
aI94
aI28
aI11
aI11
aI62
aI94
aI28
aI30
aI77
aI85
aI28
aI94
aI97
aI11
aI94
aI85
aI28
aI20
aI99
aI94
aI94
aI85
aI3
aI85
aI85
aI20
aI50
aI3
aI94
aI85
aI94
aI94
aI85
aI85
aI6
aI50
aI80
aI94
aI63
aI50
aI6
aI80
aI85
aI94
aI50
aI50
aI80
asg28
(lp60
sg30
F1.1152152387889815
sg31
I576
sg32
F1068.8436507173542
sg33
F1109.0156077070033
sg34
I354
sbsba(iDraughtCEMadmin
Table
p61
(dp62
g8
(iDraughtCEMadmin
Player
p63
(dp64
g11
g12
sg13
(lp65
I1
aI1
aI0
aI2
aI1
aI2
aI1
aI2
aI1
aI0
aI1
aI0
aI0
aI0
aI2
aI1
aI2
aI2
aI2
aI0
aI1
aI1
aI1
aI0
aI1
aI2
aI2
aI2
aI0
aI0
aI2
aI1
aI1
aI2
aI1
aI0
aI1
aI1
aI1
aI1
aI1
aI1
aI1
aI1
aI1
aI2
aI1
aI1
aI1
aI2
aI1
aI1
aI1
aI0
aI2
aI1
aI0
aI2
aI2
aI0
aI1
aI1
aI1
aI2
aI1
aI1
aI1
aI1
aI1
aI1
aI2
aI1
aI2
aI1
aI1
aI2
aI1
aI1
aI1
aI1
aI1
aI1
aI1
aI0
aI1
aI2
aI1
aI1
aI1
aI2
aI1
aI2
aI1
aI1
aI0
aI1
aI1
aI1
aI1
aI2
aI1
aI1
aI2
aI0
aI1
aI0
aI1
aI1
aI2
aI1
aI2
aI0
aI1
aI0
aI0
aI0
aI1
aI2
aI0
aI1
aI1
aI0
aI1
aI2
aI1
aI2
aI0
aI1
aI2
aI2
aI0
aI2
aI1
aI2
aI1
aI1
aI1
aI1
aI2
aI2
aI2
aI1
aI2
aI0
aI2
aI1
aI0
aI2
aI2
aI1
asg15
(lp66
I1
aI1
aI0
aI2
aI1
aI2
aI1
aI2
aI1
aI0
aI1
aI0
aI0
aI0
aI2
aI1
aI2
aI2
aI2
aI0
aI1
aI1
aI1
aI0
aI1
aI2
aI2
aI2
aI0
aI0
aI2
aI1
aI1
aI2
aI1
aI0
aI1
aI1
aI1
aI1
aI1
aI1
aI1
aI1
aI1
aI2
aI1
aI1
aI1
aI2
aI1
aI1
aI1
aI0
aI2
aI1
aI0
aI2
aI2
aI0
aI1
aI1
aI1
aI2
aI1
aI1
aI1
aI1
aI1
aI1
aI2
aI1
aI2
aI1
aI1
aI2
aI1
aI1
aI1
aI1
aI1
aI1
aI1
aI0
aI1
aI2
aI1
aI1
aI1
aI2
aI1
aI2
aI1
aI1
aI0
aI1
aI1
aI1
aI1
aI2
aI1
aI1
aI2
aI0
aI1
aI0
aI1
aI1
aI2
aI1
aI2
aI0
aI1
aI0
aI0
aI0
aI1
aI2
aI0
aI1
aI1
aI0
aI1
aI2
aI1
aI2
aI0
aI1
aI2
aI2
aI0
aI2
aI1
aI2
aI1
aI1
aI1
aI1
aI2
aI2
aI2
aI1
aI2
aI0
aI2
aI1
aI0
aI2
aI2
aI1
asg17
I00
sg18
F1.0945945945945945
sg19
F1.4813796674802917
sg20
I552
sg21
I0
sg22
(lp67
I97
aI31
aI63
asg24
I165
sg25
I77
sg26
(lp68
I27
aI40
aI32
aI37
aI96
aI96
aI84
aI27
aI33
aI64
aI16
aI88
aI95
aI49
aI60
aI69
aI81
aI18
aI37
aI7
aI33
aI62
aI1
aI70
aI35
aI33
aI13
aI50
aI80
aI47
aI23
aI66
aI10
aI88
aI47
aI86
aI38
aI30
aI50
aI63
aI79
aI58
aI27
aI32
aI60
aI2
aI67
aI16
aI73
aI20
aI3
aI86
aI30
aI17
aI27
aI7
aI73
aI31
aI94
aI72
aI2
aI67
aI33
aI1
aI63
aI15
aI15
aI80
aI63
aI66
aI66
aI50
aI88
aI67
aI67
aI31
aI9
aI63
aI66
aI66
aI80
aI31
aI9
aI9
aI41
aI27
aI79
aI99
aI50
aI27
aI63
aI31
aI71
aI6
aI41
aI80
aI99
aI71
aI67
aI53
aI99
aI99
aI30
aI30
aI94
aI68
aI53
aI30
aI62
aI85
aI6
aI6
aI97
aI97
aI71
aI6
aI97
aI6
aI11
aI20
aI53
aI53
aI11
aI20
aI94
aI71
aI6
aI53
aI11
aI53
aI94
aI27
aI71
aI6
aI50
aI85
aI88
aI11
aI6
aI92
aI92
aI97
aI9
aI92
aI63
aI44
aI28
aI44
aI97
aI31
aI63
asg28
(lp69
sg30
F1.0540004693198877
sg31
I554
sg32
F1059.4965441290285
sg33
F1079.7578771217059
sg34
I335
sbsg35
g36
sg37
(iDraughtCEMadmin
Player
p70
(dp71
g11
g12
sg13
(lp72
I1
aI0
aI1
aI1
aI2
aI1
aI2
aI2
aI0
aI1
aI1
aI1
aI2
aI1
aI1
aI2
aI1
aI2
aI1
aI2
aI1
aI1
aI1
aI1
aI1
aI1
aI0
aI1
aI2
aI2
aI1
aI1
aI1
aI2
aI2
aI1
aI1
aI1
aI1
aI1
aI2
aI1
aI1
aI1
aI1
aI1
aI1
aI1
aI1
aI1
aI1
aI1
aI1
aI1
aI1
aI1
aI1
aI1
aI1
aI0
aI0
aI2
aI1
aI1
aI2
aI1
aI1
aI2
aI0
aI2
aI1
aI1
aI0
aI0
aI0
aI0
aI1
aI1
aI2
aI2
aI1
aI0
aI1
aI1
aI1
aI1
aI1
aI1
aI2
aI2
aI1
aI2
aI1
aI1
aI0
aI2
aI1
aI0
aI2
aI0
aI0
aI0
aI2
aI1
aI2
aI2
aI2
aI2
aI1
aI1
aI2
aI1
aI1
aI2
aI1
aI1
aI1
aI1
aI2
aI1
aI2
aI0
aI0
aI0
aI1
aI1
aI0
aI1
aI1
aI1
aI1
aI0
aI2
aI2
aI1
aI2
aI1
aI2
aI1
aI2
aI1
aI1
aI0
aI1
aI2
aI1
aI2
aI1
aI1
aI1
asg15
(lp73
I1
aI0
aI1
aI1
aI2
aI1
aI2
aI2
aI0
aI1
aI1
aI1
aI2
aI1
aI1
aI2
aI1
aI2
aI1
aI2
aI1
aI1
aI1
aI1
aI1
aI1
aI0
aI1
aI2
aI2
aI1
aI1
aI1
aI2
aI2
aI1
aI1
aI1
aI1
aI1
aI2
aI1
aI1
aI1
aI1
aI1
aI1
aI1
aI1
aI1
aI1
aI1
aI1
aI1
aI1
aI1
aI1
aI1
aI1
aI0
aI0
aI2
aI1
aI1
aI2
aI1
aI1
aI2
aI0
aI2
aI1
aI1
aI0
aI0
aI0
aI0
aI1
aI1
aI2
aI2
aI1
aI0
aI1
aI1
aI1
aI1
aI1
aI1
aI2
aI2
aI1
aI2
aI1
aI1
aI0
aI2
aI1
aI0
aI2
aI0
aI0
aI0
aI2
aI1
aI2
aI2
aI2
aI2
aI1
aI1
aI2
aI1
aI1
aI2
aI1
aI1
aI1
aI1
aI2
aI1
aI2
aI0
aI0
aI0
aI1
aI1
aI0
aI1
aI1
aI1
aI1
aI0
aI2
aI2
aI1
aI2
aI1
aI2
aI1
aI2
aI1
aI1
aI0
aI1
aI2
aI1
aI2
aI1
aI1
aI1
asg17
I00
sg18
F1.1148648648648649
sg19
F1.0373861266535869
sg20
I546
sg21
I0
sg22
(lp74
I71
aI88
aI77
asg24
I167
sg25
I63
sg26
(lp75
I13
aI10
aI19
aI4
aI52
aI65
aI18
aI89
aI57
aI68
aI65
aI44
aI96
aI70
aI68
aI17
aI36
aI32
aI60
aI60
aI58
aI41
aI68
aI32
aI67
aI96
aI32
aI9
aI96
aI5
aI88
aI94
aI11
aI88
aI94
aI1
aI77
aI53
aI64
aI72
aI71
aI11
aI58
aI58
aI1
aI1
aI53
aI73
aI11
aI71
aI66
aI68
aI11
aI41
aI38
aI99
aI85
aI85
aI50
aI50
aI50
aI3
aI85
aI20
aI50
aI97
aI3
aI50
aI3
aI27
aI33
aI77
aI31
aI80
aI72
aI32
aI88
aI85
aI77
aI1
aI72
aI97
aI30
aI11
aI1
aI96
aI9
aI53
aI77
aI79
aI79
aI41
aI99
aI20
aI50
aI6
aI80
aI3
aI53
aI79
aI67
aI77
aI41
aI80
aI27
aI27
aI80
aI92
aI62
aI80
aI85
aI3
aI9
aI73
aI85
aI92
aI92
aI44
aI50
aI73
aI62
aI94
aI3
aI71
aI30
aI80
aI62
aI92
aI9
aI31
aI92
aI28
aI71
aI31
aI31
aI11
aI62
aI28
aI99
aI99
aI3
aI85
aI68
aI20
aI20
aI3
aI77
aI92
aI71
aI88
aI77
asg28
(lp76
sg30
F1.0846183229044948
sg31
I550
sg32
F1067.2014805158301
sg33
F1097.7087553759479
sg34
I333
sbsba(iDraughtCEMadmin
Table
p77
(dp78
g8
(iDraughtCEMadmin
Player
p79
(dp80
g11
g12
sg13
(lp81
I1
aI0
aI1
aI0
aI1
aI1
aI1
aI0
aI1
aI1
aI1
aI2
aI1
aI1
aI1
aI1
aI2
aI2
aI1
aI1
aI1
aI1
aI1
aI1
aI2
aI1
aI1
aI1
aI2
aI2
aI2
aI1
aI0
aI2
aI2
aI0
aI2
aI2
aI1
aI0
aI0
aI1
aI1
aI1
aI2
aI2
aI1
aI0
aI1
aI1
aI1
aI1
aI0
aI1
aI1
aI1
aI2
aI2
aI1
aI1
aI0
aI1
aI1
aI1
aI1
aI0
aI0
aI0
aI1
aI1
aI1
aI1
aI2
aI0
aI1
aI1
aI1
aI0
aI2
aI1
aI2
aI2
aI2
aI2
aI1
aI1
aI1
aI2
aI1
aI1
aI2
aI0
aI1
aI2
aI1
aI2
aI1
aI2
aI2
aI1
aI0
aI1
aI0
aI2
aI2
aI2
aI0
aI1
aI0
aI1
aI1
aI1
aI1
aI2
aI1
aI1
aI1
aI1
aI2
aI2
aI1
aI0
aI0
aI1
aI1
aI1
aI0
aI1
aI2
aI1
aI1
aI1
aI1
aI1
aI1
aI1
aI1
aI2
aI1
aI2
aI1
aI2
aI1
aI1
aI0
aI1
aI1
aI0
aI2
aI2
asg15
(lp82
I1
aI0
aI1
aI0
aI1
aI1
aI1
aI0
aI1
aI1
aI1
aI2
aI1
aI1
aI1
aI1
aI2
aI2
aI1
aI1
aI1
aI1
aI1
aI1
aI2
aI1
aI1
aI1
aI2
aI2
aI2
aI1
aI0
aI2
aI2
aI0
aI2
aI2
aI1
aI0
aI0
aI1
aI1
aI1
aI2
aI2
aI1
aI0
aI1
aI1
aI1
aI1
aI0
aI1
aI1
aI1
aI2
aI2
aI1
aI1
aI0
aI1
aI1
aI1
aI1
aI0
aI0
aI0
aI1
aI1
aI1
aI1
aI2
aI0
aI1
aI1
aI1
aI0
aI2
aI1
aI2
aI2
aI2
aI2
aI1
aI1
aI1
aI2
aI1
aI1
aI2
aI0
aI1
aI2
aI1
aI2
aI1
aI2
aI2
aI1
aI0
aI1
aI0
aI2
aI2
aI2
aI0
aI1
aI0
aI1
aI1
aI1
aI1
aI2
aI1
aI1
aI1
aI1
aI2
aI2
aI1
aI0
aI0
aI1
aI1
aI1
aI0
aI1
aI2
aI1
aI1
aI1
aI1
aI1
aI1
aI1
aI1
aI2
aI1
aI2
aI1
aI2
aI1
aI1
aI0
aI1
aI1
aI0
aI2
aI2
asg17
I00
sg18
F1.0810810810810811
sg19
F1.1342323971202859
sg20
I554
sg21
I0
sg22
(lp83
I9
aI9
aI92
asg24
I164
sg25
I44
sg26
(lp84
I94
aI91
aI52
aI8
aI12
aI18
aI82
aI15
aI12
aI62
aI75
aI21
aI40
aI63
aI25
aI48
aI83
aI0
aI5
aI85
aI86
aI57
aI37
aI38
aI20
aI9
aI40
aI26
aI35
aI57
aI35
aI74
aI3
aI15
aI88
aI89
aI36
aI53
aI62
aI6
aI17
aI87
aI74
aI27
aI6
aI94
aI68
aI15
aI15
aI17
aI73
aI55
aI35
aI3
aI20
aI17
aI27
aI79
aI79
aI20
aI6
aI73
aI7
aI5
aI96
aI2
aI92
aI73
aI66
aI38
aI20
aI97
aI33
aI66
aI96
aI88
aI17
aI27
aI6
aI20
aI94
aI88
aI97
aI71
aI96
aI32
aI73
aI80
aI9
aI68
aI67
aI9
aI80
aI31
aI6
aI88
aI20
aI31
aI32
aI66
aI31
aI99
aI85
aI88
aI71
aI92
aI3
aI80
aI88
aI71
aI3
aI80
aI80
aI63
aI71
aI9
aI92
aI92
aI80
aI99
aI41
aI99
aI9
aI27
aI99
aI92
aI53
aI73
aI73
aI11
aI92
aI41
aI30
aI88
aI41
aI92
aI11
aI9
aI9
aI92
aI62
aI99
aI88
aI62
aI11
aI77
aI28
aI77
aI9
aI9
aI92
asg28
(lp85
sg30
F1.0505100221646182
sg31
I335
sg32
F1057.9728372736658
sg33
F1076.6709956995833
sg34
I337
sbsg35
g36
sg37
(iDraughtCEMadmin
Player
p86
(dp87
g11
g12
sg13
(lp88
I2
aI1
aI2
aI1
aI1
aI2
aI1
aI1
aI2
aI1
aI0
aI1
aI1
aI1
aI1
aI2
aI1
aI2
aI2
aI0
aI1
aI1
aI1
aI2
aI1
aI0
aI2
aI2
aI1
aI1
aI1
aI2
aI2
aI2
aI1
aI1
aI0
aI2
aI2
aI1
aI1
aI1
aI1
aI2
aI1
aI1
aI0
aI1
aI0
aI0
aI0
aI1
aI1
aI1
aI2
aI1
aI1
aI1
aI1
aI2
aI2
aI1
aI0
aI1
aI0
aI1
aI1
aI1
aI1
aI1
aI2
aI2
aI1
aI2
aI0
aI2
aI1
aI1
aI1
aI2
aI0
aI0
aI2
aI1
aI1
aI1
aI1
aI2
aI1
aI2
aI0
aI2
aI1
aI0
aI1
aI1
aI0
aI2
aI1
aI2
aI0
aI1
aI1
aI1
aI0
aI2
aI0
aI1
aI1
aI1
aI1
aI2
aI1
aI1
aI1
aI2
aI1
aI0
aI1
aI2
aI1
aI0
aI1
aI1
aI0
aI1
aI2
aI1
aI0
aI1
aI1
aI1
aI1
aI2
aI2
aI0
aI1
aI2
aI1
aI1
aI1
aI2
aI0
aI1
aI1
aI1
aI1
aI1
aI2
aI1
asg15
(lp89
I2
aI1
aI2
aI1
aI1
aI2
aI1
aI1
aI2
aI1
aI0
aI1
aI1
aI1
aI1
aI2
aI1
aI2
aI2
aI0
aI1
aI1
aI1
aI2
aI1
aI0
aI2
aI2
aI1
aI1
aI1
aI2
aI2
aI2
aI1
aI1
aI0
aI2
aI2
aI1
aI1
aI1
aI1
aI2
aI1
aI1
aI0
aI1
aI0
aI0
aI0
aI1
aI1
aI1
aI2
aI1
aI1
aI1
aI1
aI2
aI2
aI1
aI0
aI1
aI0
aI1
aI1
aI1
aI1
aI1
aI2
aI2
aI1
aI2
aI0
aI2
aI1
aI1
aI1
aI2
aI0
aI0
aI2
aI1
aI1
aI1
aI1
aI2
aI1
aI2
aI0
aI2
aI1
aI0
aI1
aI1
aI0
aI2
aI1
aI2
aI0
aI1
aI1
aI1
aI0
aI2
aI0
aI1
aI1
aI1
aI1
aI2
aI1
aI1
aI1
aI2
aI1
aI0
aI1
aI2
aI1
aI0
aI1
aI1
aI0
aI1
aI2
aI1
aI0
aI1
aI1
aI1
aI1
aI2
aI2
aI0
aI1
aI2
aI1
aI1
aI1
aI2
aI0
aI1
aI1
aI1
aI1
aI1
aI2
aI1
asg17
I00
sg18
F1.0945945945945945
sg19
F-0.50827873781340716
sg20
I570
sg21
I0
sg22
(lp90
I20
aI71
aI44
asg24
I165
sg25
I92
sg26
(lp91
I42
aI53
aI36
aI22
aI32
aI39
aI33
aI58
aI72
aI86
aI86
aI72
aI41
aI16
aI73
aI31
aI53
aI80
aI32
aI7
aI14
aI33
aI15
aI79
aI9
aI7
aI59
aI9
aI41
aI6
aI11
aI72
aI9
aI38
aI38
aI9
aI30
aI27
aI11
aI53
aI72
aI66
aI72
aI72
aI68
aI2
aI96
aI67
aI53
aI44
aI80
aI97
aI97
aI50
aI99
aI97
aI99
aI6
aI31
aI53
aI94
aI79
aI41
aI68
aI28
aI53
aI27
aI2
aI28
aI62
aI3
aI71
aI71
aI62
aI62
aI3
aI20
aI3
aI94
aI97
aI17
aI99
aI3
aI17
aI17
aI94
aI28
aI85
aI85
aI62
aI28
aI97
aI50
aI20
aI85
aI99
aI73
aI73
aI80
aI63
aI62
aI44
aI99
aI85
aI85
aI73
aI27
aI80
aI63
aI85
aI63
aI85
aI85
aI73
aI27
aI44
aI3
aI44
aI3
aI3
aI62
aI30
aI71
aI41
aI44
aI63
aI50
aI9
aI63
aI44
aI62
aI9
aI9
aI80
aI44
aI41
aI20
aI20
aI44
aI62
aI77
aI28
aI77
aI88
aI97
aI77
aI62
aI63
aI20
aI71
aI44
asg28
(lp92
sg30
F1.1108624595805046
sg31
I910
sg32
F1075.1973297427949
sg33
F1113.3655883831154
sg34
I341
sbsba(iDraughtCEMadmin
Table
p93
(dp94
g8
(iDraughtCEMadmin
Player
p95
(dp96
g11
g12
sg13
(lp97
I0
aI2
aI0
aI1
aI1
aI1
aI1
aI1
aI1
aI2
aI1
aI2
aI2
aI0
aI1
aI1
aI1
aI1
aI2
aI2
aI1
aI2
aI1
aI0
aI1
aI0
aI2
aI2
aI0
aI0
aI2
aI1
aI1
aI2
aI1
aI1
aI1
aI1
aI2
aI1
aI1
aI0
aI1
aI2
aI0
aI1
aI1
aI2
aI2
aI2
aI1
aI1
aI1
aI2
aI1
aI1
aI1
aI1
aI1
aI2
aI1
aI0
aI2
aI2
aI2
aI1
aI1
aI1
aI0
aI0
aI2
aI1
aI2
aI1
aI1
aI1
aI1
aI1
aI2
aI1
aI1
aI2
aI1
aI0
aI1
aI1
aI2
aI1
aI1
aI2
aI1
aI0
aI2
aI2
aI0
aI1
aI0
aI0
aI2
aI1
aI1
aI1
aI1
aI2
aI1
aI2
aI2
aI1
aI2
aI1
aI2
aI1
aI2
aI1
aI1
aI1
aI1
aI1
aI0
aI1
aI2
aI0
aI0
aI1
aI1
aI1
aI1
aI0
aI0
aI1
aI0
aI2
aI1
aI1
aI1
aI1
aI0
aI0
aI1
aI2
aI1
aI0
aI0
aI1
aI2
aI2
aI0
aI1
aI1
aI2
asg15
(lp98
I0
aI2
aI0
aI1
aI1
aI1
aI1
aI1
aI1
aI2
aI1
aI2
aI2
aI0
aI1
aI1
aI1
aI1
aI2
aI2
aI1
aI2
aI1
aI0
aI1
aI0
aI2
aI2
aI0
aI0
aI2
aI1
aI1
aI2
aI1
aI1
aI1
aI1
aI2
aI1
aI1
aI0
aI1
aI2
aI0
aI1
aI1
aI2
aI2
aI2
aI1
aI1
aI1
aI2
aI1
aI1
aI1
aI1
aI1
aI2
aI1
aI0
aI2
aI2
aI2
aI1
aI1
aI1
aI0
aI0
aI2
aI1
aI2
aI1
aI1
aI1
aI1
aI1
aI2
aI1
aI1
aI2
aI1
aI0
aI1
aI1
aI2
aI1
aI1
aI2
aI1
aI0
aI2
aI2
aI0
aI1
aI0
aI0
aI2
aI1
aI1
aI1
aI1
aI2
aI1
aI2
aI2
aI1
aI2
aI1
aI2
aI1
aI2
aI1
aI1
aI1
aI1
aI1
aI0
aI1
aI2
aI0
aI0
aI1
aI1
aI1
aI1
aI0
aI0
aI1
aI0
aI2
aI1
aI1
aI1
aI1
aI0
aI0
aI1
aI2
aI1
aI0
aI0
aI1
aI2
aI2
aI0
aI1
aI1
aI2
asg17
I00
sg18
F1.0878378378378379
sg19
F-0.29906562667124492
sg20
I569
sg21
I0
sg22
(lp99
I99
aI99
aI62
asg24
I164
sg25
I28
sg26
(lp100
I78
aI14
aI7
aI60
aI75
aI71
aI5
aI60
aI69
aI78
aI39
aI45
aI52
aI73
aI47
aI45
aI84
aI23
aI6
aI94
aI15
aI83
aI36
aI26
aI80
aI23
aI29
aI93
aI58
aI79
aI27
aI74
aI55
aI66
aI80
aI40
aI40
aI73
aI67
aI17
aI33
aI59
aI64
aI94
aI14
aI79
aI68
aI94
aI66
aI14
aI86
aI15
aI9
aI27
aI17
aI88
aI11
aI88
aI3
aI85
aI20
aI50
aI99
aI97
aI3
aI20
aI50
aI73
aI73
aI68
aI50
aI2
aI79
aI9
aI92
aI31
aI79
aI92
aI20
aI94
aI30
aI97
aI62
aI20
aI68
aI85
aI88
aI30
aI68
aI62
aI94
aI97
aI97
aI85
aI62
aI92
aI62
aI62
aI62
aI92
aI71
aI97
aI62
aI68
aI94
aI50
aI11
aI94
aI94
aI68
aI62
aI68
aI53
aI53
aI94
aI62
aI68
aI53
aI31
aI94
aI68
aI85
aI6
aI6
aI85
aI94
aI68
aI71
aI62
aI63
aI3
aI50
aI20
aI62
aI80
aI63
aI97
aI97
aI62
aI92
aI11
aI9
aI73
aI11
aI3
aI44
aI77
aI6
aI99
aI99
aI62
asg28
(lp101
sg30
F1.0960072912286121
sg31
I236
sg32
F1067.3891271535442
sg33
F1100.5494677935853
sg34
I346
sbsg35
g36
sg37
(iDraughtCEMadmin
Player
p102
(dp103
g11
g12
sg13
(lp104
I1
aI0
aI0
aI2
aI1
aI1
aI2
aI0
aI0
aI1
aI1
aI1
aI2
aI1
aI1
aI2
aI0
aI2
aI1
aI1
aI2
aI1
aI2
aI2
aI2
aI2
aI0
aI1
aI2
aI1
aI1
aI0
aI1
aI1
aI2
aI1
aI1
aI1
aI2
aI2
aI1
aI1
aI2
aI1
aI1
aI2
aI1
aI1
aI2
aI1
aI2
aI1
aI2
aI0
aI1
aI2
aI2
aI2
aI1
aI1
aI2
aI0
aI2
aI1
aI2
aI1
aI0
aI1
aI2
aI2
aI1
aI1
aI1
aI1
aI2
aI1
aI2
aI0
aI1
aI1
aI1
aI1
aI1
aI1
aI0
aI1
aI1
aI1
aI0
aI1
aI2
aI1
aI1
aI1
aI2
aI1
aI2
aI1
aI0
aI1
aI1
aI1
aI0
aI2
aI1
aI0
aI0
aI1
aI0
aI0
aI2
aI1
aI1
aI1
aI2
aI1
aI1
aI2
aI0
aI1
aI0
aI0
aI1
aI0
aI2
aI1
aI2
aI1
aI0
aI1
aI2
aI0
aI1
aI2
aI1
aI1
aI1
aI1
aI1
aI1
aI1
aI0
aI1
aI1
aI1
aI1
aI1
aI2
aI0
aI1
asg15
(lp105
I1
aI0
aI0
aI2
aI1
aI1
aI2
aI0
aI0
aI1
aI1
aI1
aI2
aI1
aI1
aI2
aI0
aI2
aI1
aI1
aI2
aI1
aI2
aI2
aI2
aI2
aI0
aI1
aI2
aI1
aI1
aI0
aI1
aI1
aI2
aI1
aI1
aI1
aI2
aI2
aI1
aI1
aI2
aI1
aI1
aI2
aI1
aI1
aI2
aI1
aI2
aI1
aI2
aI0
aI1
aI2
aI2
aI2
aI1
aI1
aI2
aI0
aI2
aI1
aI2
aI1
aI0
aI1
aI2
aI2
aI1
aI1
aI1
aI1
aI2
aI1
aI2
aI0
aI1
aI1
aI1
aI1
aI1
aI1
aI0
aI1
aI1
aI1
aI0
aI1
aI2
aI1
aI1
aI1
aI2
aI1
aI2
aI1
aI0
aI1
aI1
aI1
aI0
aI2
aI1
aI0
aI0
aI1
aI0
aI0
aI2
aI1
aI1
aI1
aI2
aI1
aI1
aI2
aI0
aI1
aI0
aI0
aI1
aI0
aI2
aI1
aI2
aI1
aI0
aI1
aI2
aI0
aI1
aI2
aI1
aI1
aI1
aI1
aI1
aI1
aI1
aI0
aI1
aI1
aI1
aI1
aI1
aI2
aI0
aI1
asg17
I00
sg18
F1.1013513513513513
sg19
F-1.0085343122023687
sg20
I582
sg21
I0
sg22
(lp106
I88
aI20
aI28
asg24
I164
sg25
I62
sg26
(lp107
I12
aI21
aI34
aI90
aI78
aI47
aI44
aI51
aI84
aI35
aI55
aI78
aI66
aI29
aI23
aI79
aI60
aI2
aI87
aI77
aI36
aI89
aI79
aI60
aI86
aI61
aI48
aI35
aI58
aI44
aI11
aI88
aI64
aI33
aI88
aI53
aI66
aI1
aI50
aI3
aI3
aI2
aI30
aI50
aI97
aI64
aI67
aI9
aI6
aI17
aI9
aI73
aI73
aI9
aI9
aI9
aI2
aI17
aI9
aI9
aI9
aI71
aI73
aI94
aI71
aI31
aI94
aI92
aI73
aI30
aI92
aI28
aI92
aI94
aI94
aI30
aI97
aI94
aI28
aI68
aI68
aI53
aI41
aI68
aI94
aI68
aI94
aI28
aI28
aI28
aI92
aI20
aI28
aI94
aI9
aI11
aI94
aI28
aI94
aI68
aI94
aI94
aI68
aI11
aI97
aI68
aI99
aI63
aI92
aI99
aI28
aI94
aI97
aI97
aI68
aI28
aI94
aI99
aI11
aI63
aI85
aI92
aI77
aI31
aI3
aI63
aI97
aI97
aI28
aI80
aI80
aI41
aI92
aI97
aI6
aI28
aI63
aI3
aI71
aI31
aI28
aI92
aI44
aI31
aI31
aI44
aI92
aI3
aI88
aI20
aI28
asg28
(lp108
sg30
F1.1294847442086833
sg31
I466
sg32
F1070.701231146182
sg33
F1114.9342899560033
sg34
I351
sbsba(iDraughtCEMadmin
Table
p109
(dp110
g8
(iDraughtCEMadmin
Player
p111
(dp112
g11
g12
sg13
(lp113
I2
aI0
aI1
aI2
aI2
aI1
aI2
aI2
aI1
aI0
aI2
aI1
aI1
aI1
aI2
aI1
aI1
aI2
aI0
aI1
aI0
aI0
aI2
aI1
aI1
aI1
aI2
aI1
aI1
aI1
aI2
aI1
aI2
aI2
aI1
aI0
aI1
aI0
aI1
aI0
aI2
aI1
aI1
aI1
aI0
aI0
aI1
aI2
aI2
aI1
aI1
aI1
aI0
aI1
aI1
aI1
aI1
aI1
aI1
aI1
aI1
aI1
aI1
aI1
aI1
aI1
aI1
aI1
aI2
aI0
aI1
aI1
aI0
aI0
aI1
aI1
aI0
aI1
aI2
aI2
aI1
aI1
aI0
aI1
aI1
aI1
aI1
aI2
aI1
aI1
aI1
aI1
aI1
aI1
aI1
aI1
aI1
aI1
aI0
aI2
aI1
aI1
aI0
aI1
aI1
aI0
aI1
aI1
aI1
aI1
aI0
aI1
aI2
aI1
aI1
aI1
aI2
aI2
aI1
aI2
aI2
aI2
aI1
aI1
aI1
aI0
aI2
aI2
aI1
aI1
aI1
aI0
aI1
aI1
aI1
aI2
aI1
aI1
aI1
aI2
aI1
aI1
aI1
aI1
aI0
aI1
aI2
aI1
aI2
aI2
asg15
(lp114
I2
aI0
aI1
aI2
aI2
aI1
aI2
aI2
aI1
aI0
aI2
aI1
aI1
aI1
aI2
aI1
aI1
aI2
aI0
aI1
aI0
aI0
aI2
aI1
aI1
aI1
aI2
aI1
aI1
aI1
aI2
aI1
aI2
aI2
aI1
aI0
aI1
aI0
aI1
aI0
aI2
aI1
aI1
aI1
aI0
aI0
aI1
aI2
aI2
aI1
aI1
aI1
aI0
aI1
aI1
aI1
aI1
aI1
aI1
aI1
aI1
aI1
aI1
aI1
aI1
aI1
aI1
aI1
aI2
aI0
aI1
aI1
aI0
aI0
aI1
aI1
aI0
aI1
aI2
aI2
aI1
aI1
aI0
aI1
aI1
aI1
aI1
aI2
aI1
aI1
aI1
aI1
aI1
aI1
aI1
aI1
aI1
aI1
aI0
aI2
aI1
aI1
aI0
aI1
aI1
aI0
aI1
aI1
aI1
aI1
aI0
aI1
aI2
aI1
aI1
aI1
aI2
aI2
aI1
aI2
aI2
aI2
aI1
aI1
aI1
aI0
aI2
aI2
aI1
aI1
aI1
aI0
aI1
aI1
aI1
aI2
aI1
aI1
aI1
aI2
aI1
aI1
aI1
aI1
aI0
aI1
aI2
aI1
aI2
aI2
asg17
I00
sg18
F1.0608108108108107
sg19
F0.9807966943990778
sg20
I545
sg21
I0
sg22
(lp115
I85
aI85
aI3
asg24
I161
sg25
I6
sg26
(lp116
I56
aI61
aI25
aI49
aI75
aI31
aI58
aI9
aI3
aI96
aI78
aI32
aI9
aI86
aI7
aI28
aI3
aI64
aI31
aI23
aI27
aI15
aI41
aI26
aI70
aI20
aI9
aI92
aI85
aI47
aI47
aI94
aI44
aI41
aI61
aI61
aI97
aI44
aI82
aI41
aI31
aI7
aI33
aI55
aI2
aI96
aI86
aI5
aI55
aI44
aI17
aI62
aI14
aI17
aI73
aI57
aI32
aI17
aI30
aI92
aI20
aI73
aI27
aI97
aI73
aI44
aI3
aI53
aI55
aI17
aI3
aI53
aI17
aI17
aI97
aI99
aI99
aI66
aI44
aI63
aI97
aI66
aI3
aI31
aI88
aI66
aI66
aI66
aI20
aI77
aI67
aI79
aI79
aI79
aI79
aI79
aI66
aI99
aI41
aI67
aI88
aI67
aI79
aI88
aI41
aI80
aI27
aI30
aI28
aI28
aI77
aI77
aI97
aI77
aI97
aI11
aI77
aI20
aI71
aI85
aI85
aI99
aI77
aI20
aI3
aI62
aI53
aI77
aI71
aI68
aI3
aI41
aI77
aI71
aI71
aI71
aI50
aI71
aI50
aI53
aI71
aI85
aI68
aI41
aI71
aI50
aI71
aI28
aI85
aI85
aI3
asg28
(lp117
sg30
F1.0324716747428537
sg31
I760
sg32
F1064.1389439738632
sg33
F1076.4055237242715
sg34
I328
sbsg35
g36
sg37
(iDraughtCEMadmin
Player
p118
(dp119
g11
g12
sg13
(lp120
I0
aI2
aI1
aI1
aI1
aI1
aI2
aI2
aI2
aI1
aI0
aI1
aI0
aI1
aI1
aI1
aI1
aI1
aI1
aI1
aI2
aI1
aI0
aI1
aI1
aI1
aI2
aI2
aI1
aI1
aI1
aI2
aI2
aI1
aI2
aI2
aI2
aI1
aI2
aI1
aI2
aI0
aI2
aI2
aI2
aI1
aI2
aI1
aI0
aI1
aI1
aI1
aI1
aI2
aI1
aI0
aI0
aI1
aI0
aI1
aI0
aI2
aI1
aI1
aI1
aI1
aI1
aI1
aI1
aI1
aI1
aI1
aI2
aI0
aI0
aI2
aI1
aI2
aI0
aI2
aI1
aI0
aI1
aI1
aI2
aI1
aI2
aI0
aI1
aI1
aI2
aI0
aI1
aI0
aI1
aI1
aI1
aI0
aI1
aI0
aI1
aI2
aI1
aI1
aI0
aI2
aI2
aI2
aI1
aI0
aI2
aI1
aI1
aI1
aI2
aI1
aI0
aI2
aI1
aI2
aI1
aI2
aI2
aI2
aI0
aI1
aI1
aI2
aI0
aI1
aI1
aI1
aI1
aI1
aI2
aI1
aI1
aI1
aI2
aI0
aI1
aI1
aI1
aI0
aI1
aI1
aI2
aI0
aI0
aI0
asg15
(lp121
I0
aI2
aI1
aI1
aI1
aI1
aI2
aI2
aI2
aI1
aI0
aI1
aI0
aI1
aI1
aI1
aI1
aI1
aI1
aI1
aI2
aI1
aI0
aI1
aI1
aI1
aI2
aI2
aI1
aI1
aI1
aI2
aI2
aI1
aI2
aI2
aI2
aI1
aI2
aI1
aI2
aI0
aI2
aI2
aI2
aI1
aI2
aI1
aI0
aI1
aI1
aI1
aI1
aI2
aI1
aI0
aI0
aI1
aI0
aI1
aI0
aI2
aI1
aI1
aI1
aI1
aI1
aI1
aI1
aI1
aI1
aI1
aI2
aI0
aI0
aI2
aI1
aI2
aI0
aI2
aI1
aI0
aI1
aI1
aI2
aI1
aI2
aI0
aI1
aI1
aI2
aI0
aI1
aI0
aI1
aI1
aI1
aI0
aI1
aI0
aI1
aI2
aI1
aI1
aI0
aI2
aI2
aI2
aI1
aI0
aI2
aI1
aI1
aI1
aI2
aI1
aI0
aI2
aI1
aI2
aI1
aI2
aI2
aI2
aI0
aI1
aI1
aI2
aI0
aI1
aI1
aI1
aI1
aI1
aI2
aI1
aI1
aI1
aI2
aI0
aI1
aI1
aI1
aI0
aI1
aI1
aI2
aI0
aI0
aI0
asg17
I00
sg18
F1.1013513513513513
sg19
F0.094071562244653253
sg20
I547
sg21
I0
sg22
(lp122
I31
aI97
aI6
asg24
I163
sg25
I3
sg26
(lp123
I96
aI24
aI84
aI8
aI59
aI41
aI98
aI1
aI6
aI20
aI75
aI10
aI47
aI94
aI75
aI4
aI10
aI96
aI6
aI57
aI79
aI78
aI14
aI39
aI5
aI66
aI36
aI69
aI44
aI27
aI41
aI20
aI59
aI33
aI9
aI15
aI9
aI58
aI80
aI9
aI62
aI62
aI44
aI9
aI77
aI30
aI9
aI96
aI55
aI71
aI55
aI20
aI85
aI28
aI63
aI85
aI63
aI28
aI80
aI63
aI71
aI79
aI85
aI88
aI11
aI85
aI50
aI97
aI80
aI88
aI50
aI27
aI17
aI20
aI99
aI85
aI6
aI67
aI9
aI85
aI92
aI6
aI17
aI99
aI92
aI92
aI20
aI17
aI71
aI31
aI20
aI92
aI66
aI27
aI53
aI63
aI31
aI6
aI79
aI30
aI53
aI50
aI30
aI53
aI30
aI20
aI9
aI9
aI20
aI44
aI63
aI50
aI50
aI44
aI85
aI20
aI27
aI50
aI92
aI80
aI92
aI92
aI63
aI31
aI97
aI62
aI80
aI41
aI71
aI20
aI85
aI68
aI28
aI6
aI99
aI68
aI85
aI62
aI31
aI6
aI63
aI80
aI85
aI41
aI71
aI63
aI28
aI62
aI31
aI97
aI6
asg28
(lp124
sg30
F1.0981630890994569
sg31
I548
sg32
F1068.0055233211945
sg33
F1102.3151292609925
sg34
I331
sbsba(iDraughtCEMadmin
Table
p125
(dp126
g8
(iDraughtCEMadmin
Player
p127
(dp128
g11
g12
sg13
(lp129
I2
aI1
aI2
aI1
aI2
aI2
aI0
aI0
aI2
aI0
aI1
aI1
aI2
aI0
aI2
aI0
aI0
aI1
aI1
aI0
aI1
aI2
aI2
aI1
aI1
aI2
aI2
aI1
aI2
aI1
aI2
aI1
aI2
aI0
aI0
aI1
aI2
aI0
aI0
aI2
aI2
aI1
aI1
aI2
aI1
aI0
aI1
aI2
aI2
aI0
aI0
aI1
aI1
aI2
aI1
aI0
aI1
aI1
aI1
aI1
aI0
aI2
aI1
aI0
aI2
aI0
aI0
aI0
aI2
aI0
aI1
aI1
aI2
aI2
aI2
aI0
aI1
aI1
aI0
aI0
aI2
aI2
aI1
aI1
aI0
aI2
aI1
aI2
aI1
aI1
aI2
aI1
aI2
aI2
aI1
aI0
aI1
aI1
aI0
aI1
aI1
aI2
aI2
aI2
aI1
aI1
aI0
aI1
aI2
aI1
aI0
aI1
aI1
aI2
aI1
aI2
aI1
aI1
aI1
aI0
aI1
aI1
aI2
aI2
aI1
aI1
aI2
aI0
aI1
aI1
aI0
aI2
aI1
aI1
aI0
aI1
aI1
aI0
aI1
aI0
aI1
aI0
aI1
aI2
aI1
aI1
aI1
aI2
aI1
aI0
asg15
(lp130
I2
aI1
aI2
aI1
aI2
aI2
aI0
aI0
aI2
aI0
aI1
aI1
aI2
aI0
aI2
aI0
aI0
aI1
aI1
aI0
aI1
aI2
aI2
aI1
aI1
aI2
aI2
aI1
aI2
aI1
aI2
aI1
aI2
aI0
aI0
aI1
aI2
aI0
aI0
aI2
aI2
aI1
aI1
aI2
aI1
aI0
aI1
aI2
aI2
aI0
aI0
aI1
aI1
aI2
aI1
aI0
aI1
aI1
aI1
aI1
aI0
aI2
aI1
aI0
aI2
aI0
aI0
aI0
aI2
aI0
aI1
aI1
aI2
aI2
aI2
aI0
aI1
aI1
aI0
aI0
aI2
aI2
aI1
aI1
aI0
aI2
aI1
aI2
aI1
aI1
aI2
aI1
aI2
aI2
aI1
aI0
aI1
aI1
aI0
aI1
aI1
aI2
aI2
aI2
aI1
aI1
aI0
aI1
aI2
aI1
aI0
aI1
aI1
aI2
aI1
aI2
aI1
aI1
aI1
aI0
aI1
aI1
aI2
aI2
aI1
aI1
aI2
aI0
aI1
aI1
aI0
aI2
aI1
aI1
aI0
aI1
aI1
aI0
aI1
aI0
aI1
aI0
aI1
aI2
aI1
aI1
aI1
aI2
aI1
aI0
asg17
I00
sg18
F1.0675675675675675
sg19
F0.46816787640455004
sg20
I552
sg21
I0
sg22
(lp131
I94
aI94
aI11
asg24
I159
sg25
I41
sg26
(lp132
I91
aI73
aI2
aI35
aI89
aI9
aI3
aI89
aI8
aI73
aI95
aI59
aI2
aI92
aI33
aI93
aI21
aI39
aI10
aI7
aI16
aI29
aI98
aI1
aI63
aI97
aI6
aI48
aI52
aI15
aI92
aI3
aI75
aI86
aI94
aI27
aI17
aI6
aI23
aI72
aI20
aI68
aI73
aI94
aI14
aI99
aI68
aI6
aI88
aI23
aI86
aI94
aI27
aI23
aI23
aI80
aI55
aI67
aI23
aI58
aI67
aI30
aI17
aI63
aI68
aI55
aI79
aI27
aI9
aI72
aI67
aI17
aI71
aI9
aI92
aI2
aI73
aI31
aI94
aI20
aI79
aI94
aI68
aI17
aI73
aI30
aI27
aI27
aI63
aI80
aI77
aI67
aI62
aI73
aI9
aI80
aI66
aI88
aI80
aI63
aI31
aI66
aI79
aI77
aI31
aI53
aI79
aI6
aI99
aI80
aI31
aI80
aI6
aI71
aI20
aI99
aI99
aI44
aI97
aI27
aI50
aI92
aI99
aI3
aI30
aI30
aI80
aI11
aI62
aI44
aI73
aI73
aI44
aI11
aI92
aI73
aI94
aI6
aI11
aI50
aI53
aI53
aI50
aI3
aI85
aI6
aI53
aI11
aI94
aI94
aI11
asg28
(lp133
sg30
F1.0561730162011389
sg31
I875
sg32
F1060.4612917611137
sg33
F1080.4665308734727
sg34
I332
sbsg35
g36
sg37
(iDraughtCEMadmin
Player
p134
(dp135
g11
g12
sg13
(lp136
I1
aI2
aI2
aI1
aI2
aI1
aI1
aI1
aI0
aI2
aI2
aI1
aI0
aI1
aI1
aI1
aI0
aI2
aI1
aI1
aI0
aI1
aI1
aI2
aI2
aI1
aI1
aI1
aI2
aI1
aI1
aI2
aI1
aI1
aI2
aI1
aI1
aI1
aI1
aI1
aI0
aI1
aI1
aI1
aI1
aI2
aI1
aI2
aI1
aI1
aI2
aI1
aI1
aI1
aI0
aI1
aI1
aI1
aI1
aI0
aI2
aI1
aI1
aI2
aI1
aI1
aI1
aI1
aI0
aI1
aI1
aI1
aI2
aI1
aI1
aI1
aI0
aI0
aI1
aI2
aI1
aI2
aI1
aI0
aI1
aI1
aI0
aI1
aI1
aI1
aI0
aI2
aI1
aI1
aI1
aI0
aI0
aI1
aI1
aI1
aI1
aI1
aI1
aI2
aI1
aI1
aI1
aI1
aI2
aI1
aI1
aI1
aI1
aI1
aI0
aI2
aI2
aI1
aI0
aI1
aI1
aI1
aI1
aI1
aI1
aI2
aI2
aI1
aI2
aI1
aI1
aI0
aI2
aI2
aI2
aI0
aI1
aI0
aI1
aI2
aI0
aI2
aI2
aI2
aI0
aI0
aI1
aI0
aI1
aI0
asg15
(lp137
I1
aI2
aI2
aI1
aI2
aI1
aI1
aI1
aI0
aI2
aI2
aI1
aI0
aI1
aI1
aI1
aI0
aI2
aI1
aI1
aI0
aI1
aI1
aI2
aI2
aI1
aI1
aI1
aI2
aI1
aI1
aI2
aI1
aI1
aI2
aI1
aI1
aI1
aI1
aI1
aI0
aI1
aI1
aI1
aI1
aI2
aI1
aI2
aI1
aI1
aI2
aI1
aI1
aI1
aI0
aI1
aI1
aI1
aI1
aI0
aI2
aI1
aI1
aI2
aI1
aI1
aI1
aI1
aI0
aI1
aI1
aI1
aI2
aI1
aI1
aI1
aI0
aI0
aI1
aI2
aI1
aI2
aI1
aI0
aI1
aI1
aI0
aI1
aI1
aI1
aI0
aI2
aI1
aI1
aI1
aI0
aI0
aI1
aI1
aI1
aI1
aI1
aI1
aI2
aI1
aI1
aI1
aI1
aI2
aI1
aI1
aI1
aI1
aI1
aI0
aI2
aI2
aI1
aI0
aI1
aI1
aI1
aI1
aI1
aI1
aI2
aI2
aI1
aI2
aI1
aI1
aI0
aI2
aI2
aI2
aI0
aI1
aI0
aI1
aI2
aI0
aI2
aI2
aI2
aI0
aI0
aI1
aI0
aI1
aI0
asg17
I00
sg18
F1.0675675675675675
sg19
F0.18944932048227658
sg20
I560
sg21
I0
sg22
(lp138
I73
aI73
aI41
asg24
I159
sg25
I11
sg26
(lp139
I61
aI17
aI1
aI58
aI68
aI37
aI35
aI8
aI33
aI32
aI31
aI94
aI68
aI27
aI57
aI49
aI74
aI94
aI87
aI26
aI40
aI51
aI82
aI72
aI15
aI31
aI26
aI92
aI87
aI87
aI64
aI62
aI63
aI73
aI55
aI33
aI94
aI73
aI66
aI92
aI63
aI57
aI94
aI68
aI61
aI63
aI61
aI38
aI63
aI79
aI23
aI28
aI67
aI53
aI80
aI88
aI38
aI38
aI50
aI50
aI50
aI88
aI50
aI3
aI85
aI1
aI1
aI88
aI99
aI55
aI96
aI99
aI31
aI63
aI66
aI66
aI80
aI88
aI73
aI94
aI94
aI30
aI73
aI85
aI85
aI30
aI17
aI27
aI85
aI62
aI17
aI50
aI27
aI62
aI28
aI53
aI17
aI27
aI30
aI68
aI68
aI73
aI97
aI97
aI99
aI71
aI53
aI79
aI62
aI97
aI31
aI94
aI68
aI71
aI71
aI71
aI71
aI6
aI97
aI30
aI77
aI20
aI53
aI77
aI99
aI88
aI27
aI44
aI41
aI77
aI53
aI99
aI99
aI27
aI30
aI63
aI41
aI44
aI88
aI73
aI77
aI41
aI28
aI73
aI99
aI28
aI44
aI41
aI73
aI73
aI41
asg28
(lp140
sg30
F1.0641660945209999
sg31
I778
sg32
F1066.5532089755573
sg33
F1089.0669150912167
sg34
I336
sbsba(iDraughtCEMadmin
Table
p141
(dp142
g8
(iDraughtCEMadmin
Player
p143
(dp144
g11
g12
sg13
(lp145
I2
aI1
aI1
aI0
aI0
aI1
aI1
aI0
aI2
aI1
aI1
aI2
aI2
aI1
aI0
aI1
aI0
aI2
aI2
aI2
aI1
aI1
aI0
aI0
aI0
aI1
aI2
aI1
aI0
aI1
aI1
aI1
aI1
aI2
aI1
aI2
aI1
aI1
aI2
aI2
aI2
aI2
aI1
aI1
aI2
aI2
aI0
aI1
aI1
aI0
aI2
aI1
aI2
aI0
aI1
aI2
aI1
aI1
aI0
aI2
aI1
aI1
aI0
aI1
aI1
aI2
aI0
aI1
aI0
aI1
aI2
aI0
aI1
aI0
aI2
aI2
aI1
aI1
aI0
aI1
aI1
aI1
aI1
aI2
aI2
aI2
aI2
aI1
aI1
aI1
aI1
aI0
aI1
aI2
aI1
aI1
aI1
aI0
aI1
aI2
aI2
aI1
aI1
aI1
aI1
aI0
aI1
aI1
aI1
aI0
aI2
aI1
aI1
aI1
aI1
aI1
aI1
aI1
aI0
aI1
aI0
aI1
aI1
aI0
aI0
aI1
aI1
aI1
aI0
aI1
aI1
aI2
aI1
aI0
aI1
aI2
aI2
aI2
aI0
aI1
aI0
aI1
aI1
aI1
aI1
aI1
aI1
aI1
aI2
aI1
asg15
(lp146
I2
aI1
aI1
aI0
aI0
aI1
aI1
aI0
aI2
aI1
aI1
aI2
aI2
aI1
aI0
aI1
aI0
aI2
aI2
aI2
aI1
aI1
aI0
aI0
aI0
aI1
aI2
aI1
aI0
aI1
aI1
aI1
aI1
aI2
aI1
aI2
aI1
aI1
aI2
aI2
aI2
aI2
aI1
aI1
aI2
aI2
aI0
aI1
aI1
aI0
aI2
aI1
aI2
aI0
aI1
aI2
aI1
aI1
aI0
aI2
aI1
aI1
aI0
aI1
aI1
aI2
aI0
aI1
aI0
aI1
aI2
aI0
aI1
aI0
aI2
aI2
aI1
aI1
aI0
aI1
aI1
aI1
aI1
aI2
aI2
aI2
aI2
aI1
aI1
aI1
aI1
aI0
aI1
aI2
aI1
aI1
aI1
aI0
aI1
aI2
aI2
aI1
aI1
aI1
aI1
aI0
aI1
aI1
aI1
aI0
aI2
aI1
aI1
aI1
aI1
aI1
aI1
aI1
aI0
aI1
aI0
aI1
aI1
aI0
aI0
aI1
aI1
aI1
aI0
aI1
aI1
aI2
aI1
aI0
aI1
aI2
aI2
aI2
aI0
aI1
aI0
aI1
aI1
aI1
aI1
aI1
aI1
aI1
aI2
aI1
asg17
I00
sg18
F1.0337837837837838
sg19
F-0.094330435245319685
sg20
I561
sg21
I0
sg22
(lp147
I3
aI77
aI53
asg24
I156
sg25
I31
sg26
(lp148
I81
aI68
aI37
aI67
aI16
aI6
aI54
aI45
aI74
aI83
aI11
aI69
aI26
aI38
aI8
aI46
aI92
aI96
aI5
aI33
aI50
aI6
aI55
aI87
aI52
aI49
aI11
aI71
aI55
aI89
aI36
aI52
aI64
aI50
aI16
aI23
aI71
aI58
aI16
aI57
aI32
aI80
aI64
aI23
aI14
aI32
aI6
aI61
aI38
aI64
aI88
aI48
aI38
aI80
aI57
aI57
aI88
aI85
aI77
aI15
aI58
aI88
aI2
aI58
aI92
aI2
aI63
aI67
aI32
aI68
aI30
aI71
aI41
aI28
aI62
aI30
aI11
aI85
aI79
aI27
aI77
aI80
aI32
aI2
aI3
aI77
aI44
aI32
aI94
aI44
aI3
aI88
aI6
aI44
aI77
aI41
aI67
aI67
aI30
aI41
aI67
aI79
aI20
aI41
aI67
aI28
aI11
aI3
aI62
aI50
aI30
aI80
aI63
aI30
aI30
aI27
aI27
aI63
aI63
aI9
aI73
aI99
aI3
aI62
aI71
aI99
aI99
aI99
aI88
aI97
aI99
aI88
aI97
aI9
aI99
aI99
aI62
aI62
aI50
aI97
aI20
aI20
aI97
aI71
aI3
aI77
aI53
aI53
aI53
aI53
aI53
asg28
(lp149
sg30
F1.0364281955880676
sg31
I441
sg32
F1054.7502177116742
sg33
F1067.317941628882
sg34
I337
sbsg35
g36
sg37
(iDraughtCEMadmin
Player
p150
(dp151
g11
g12
sg13
(lp152
I2
aI1
aI0
aI2
aI0
aI1
aI0
aI2
aI0
aI2
aI1
aI2
aI1
aI1
aI2
aI1
aI2
aI0
aI2
aI2
aI1
aI2
aI1
aI0
aI0
aI2
aI1
aI2
aI2
aI1
aI2
aI1
aI1
aI1
aI1
aI1
aI1
aI0
aI1
aI2
aI1
aI1
aI1
aI2
aI1
aI0
aI1
aI2
aI1
aI1
aI1
aI1
aI1
aI1
aI1
aI0
aI1
aI1
aI1
aI2
aI2
aI1
aI0
aI2
aI0
aI2
aI0
aI1
aI1
aI2
aI0
aI1
aI2
aI2
aI1
aI0
aI1
aI1
aI1
aI2
aI1
aI2
aI0
aI1
aI1
aI1
aI1
aI1
aI1
aI1
aI1
aI0
aI0
aI1
aI0
aI1
aI1
aI1
aI2
aI1
aI1
aI1
aI0
aI2
aI1
aI1
aI1
aI1
aI1
aI1
aI1
aI1
aI1
aI1
aI1
aI2
aI0
aI1
aI2
aI0
aI1
aI0
aI1
aI2
aI1
aI2
aI1
aI1
aI0
aI1
aI1
aI2
aI1
aI1
aI0
aI0
aI0
aI2
aI2
aI1
aI1
aI1
aI2
aI1
aI0
aI1
aI1
aI1
aI1
aI1
asg15
(lp153
I2
aI1
aI0
aI2
aI0
aI1
aI0
aI2
aI0
aI2
aI1
aI2
aI1
aI1
aI2
aI1
aI2
aI0
aI2
aI2
aI1
aI2
aI1
aI0
aI0
aI2
aI1
aI2
aI2
aI1
aI2
aI1
aI1
aI1
aI1
aI1
aI1
aI0
aI1
aI2
aI1
aI1
aI1
aI2
aI1
aI0
aI1
aI2
aI1
aI1
aI1
aI1
aI1
aI1
aI1
aI0
aI1
aI1
aI1
aI2
aI2
aI1
aI0
aI2
aI0
aI2
aI0
aI1
aI1
aI2
aI0
aI1
aI2
aI2
aI1
aI0
aI1
aI1
aI1
aI2
aI1
aI2
aI0
aI1
aI1
aI1
aI1
aI1
aI1
aI1
aI1
aI0
aI0
aI1
aI0
aI1
aI1
aI1
aI2
aI1
aI1
aI1
aI0
aI2
aI1
aI1
aI1
aI1
aI1
aI1
aI1
aI1
aI1
aI1
aI1
aI2
aI0
aI1
aI2
aI0
aI1
aI0
aI1
aI2
aI1
aI2
aI1
aI1
aI0
aI1
aI1
aI2
aI1
aI1
aI0
aI0
aI0
aI2
aI2
aI1
aI1
aI1
aI2
aI1
aI0
aI1
aI1
aI1
aI1
aI1
asg17
I00
sg18
F1.0540540540540539
sg19
F-0.08725285135121795
sg20
I555
sg21
I0
sg22
(lp154
I80
aI80
aI31
asg24
I158
sg25
I53
sg26
(lp155
I92
aI56
aI82
aI45
aI55
aI37
aI23
aI49
aI76
aI91
aI45
aI1
aI84
aI34
aI92
aI23
aI79
aI85
aI73
aI24
aI94
aI5
aI27
aI85
aI16
aI2
aI85
aI72
aI67
aI44
aI66
aI64
aI88
aI5
aI86
aI63
aI62
aI96
aI48
aI38
aI85
aI92
aI68
aI66
aI32
aI85
aI57
aI32
aI63
aI9
aI1
aI68
aI92
aI1
aI61
aI85
aI11
aI86
aI27
aI92
aI85
aI55
aI55
aI85
aI92
aI67
aI6
aI85
aI9
aI6
aI85
aI63
aI99
aI2
aI32
aI73
aI9
aI62
aI67
aI3
aI73
aI63
aI94
aI1
aI30
aI3
aI30
aI3
aI94
aI94
aI97
aI11
aI97
aI41
aI28
aI28
aI77
aI11
aI28
aI67
aI77
aI20
aI85
aI94
aI20
aI77
aI77
aI11
aI44
aI27
aI88
aI50
aI97
aI77
aI11
aI77
aI88
aI94
aI6
aI99
aI99
aI99
aI97
aI20
aI99
aI20
aI80
aI85
aI50
aI20
aI41
aI41
aI6
aI20
aI94
aI94
aI50
aI71
aI41
aI50
aI80
aI80
aI31
aI31
aI31
aI71
aI31
aI71
aI88
aI50
aI31
asg28
(lp156
sg30
F1.0586593752760531
sg31
I561
sg32
F1066.0826093703622
sg33
F1086.3991350325232
sg34
I334
sbsba(iDraughtCEMadmin
Table
p157
(dp158
g8
(iDraughtCEMadmin
Player
p159
(dp160
g11
g12
sg13
(lp161
I2
aI1
aI0
aI1
aI2
aI1
aI1
aI1
aI0
aI1
aI1
aI2
aI2
aI1
aI1
aI2
aI1
aI1
aI1
aI1
aI1
aI1
aI1
aI0
aI2
aI1
aI0
aI2
aI1
aI2
aI2
aI1
aI1
aI2
aI0
aI1
aI1
aI0
aI0
aI1
aI0
aI2
aI1
aI0
aI1
aI1
aI2
aI0
aI1
aI1
aI1
aI1
aI2
aI1
aI0
aI1
aI2
aI0
aI0
aI2
aI1
aI1
aI1
aI1
aI2
aI1
aI1
aI1
aI1
aI1
aI1
aI2
aI0
aI2
aI1
aI1
aI2
aI1
aI1
aI2
aI1
aI1
aI1
aI1
aI1
aI1
aI1
aI0
aI1
aI0
aI1
aI1
aI1
aI1
aI1
aI2
aI1
aI1
aI0
aI1
aI2
aI0
aI2
aI0
aI0
aI2
aI0
aI0
aI0
aI1
aI2
aI2
aI1
aI2
aI1
aI2
aI0
aI0
aI0
aI2
aI1
aI2
aI2
aI2
aI2
aI2
aI1
aI0
aI2
aI1
aI2
aI2
aI0
aI1
aI0
aI1
aI0
aI1
aI1
aI1
aI2
aI1
aI1
aI0
aI1
aI1
aI0
aI1
aI1
aI1
asg15
(lp162
I2
aI1
aI0
aI1
aI2
aI1
aI1
aI1
aI0
aI1
aI1
aI2
aI2
aI1
aI1
aI2
aI1
aI1
aI1
aI1
aI1
aI1
aI1
aI0
aI2
aI1
aI0
aI2
aI1
aI2
aI2
aI1
aI1
aI2
aI0
aI1
aI1
aI0
aI0
aI1
aI0
aI2
aI1
aI0
aI1
aI1
aI2
aI0
aI1
aI1
aI1
aI1
aI2
aI1
aI0
aI1
aI2
aI0
aI0
aI2
aI1
aI1
aI1
aI1
aI2
aI1
aI1
aI1
aI1
aI1
aI1
aI2
aI0
aI2
aI1
aI1
aI2
aI1
aI1
aI2
aI1
aI1
aI1
aI1
aI1
aI1
aI1
aI0
aI1
aI0
aI1
aI1
aI1
aI1
aI1
aI2
aI1
aI1
aI0
aI1
aI2
aI0
aI2
aI0
aI0
aI2
aI0
aI0
aI0
aI1
aI2
aI2
aI1
aI2
aI1
aI2
aI0
aI0
aI0
aI2
aI1
aI2
aI2
aI2
aI2
aI2
aI1
aI0
aI2
aI1
aI2
aI2
aI0
aI1
aI0
aI1
aI0
aI1
aI1
aI1
aI2
aI1
aI1
aI0
aI1
aI1
aI0
aI1
aI1
aI1
asg17
I00
sg18
F1.0405405405405406
sg19
F0.67980997958718492
sg20
I553
sg21
I0
sg22
(lp163
I63
aI92
aI88
asg24
I156
sg25
I71
sg26
(lp164
I21
aI15
aI29
aI64
aI28
aI7
aI68
aI14
aI87
aI86
aI54
aI48
aI13
aI35
aI67
aI8
aI49
aI66
aI61
aI58
aI12
aI49
aI5
aI67
aI1
aI96
aI74
aI31
aI1
aI35
aI48
aI2
aI31
aI23
aI49
aI10
aI66
aI2
aI1
aI63
aI38
aI57
aI72
aI50
aI61
aI32
aI50
aI72
aI61
aI38
aI63
aI55
aI27
aI66
aI3
aI96
aI27
aI17
aI3
aI68
aI79
aI2
aI41
aI62
aI64
aI67
aI31
aI30
aI62
aI64
aI80
aI44
aI92
aI92
aI50
aI79
aI17
aI20
aI3
aI50
aI97
aI20
aI20
aI30
aI28
aI99
aI88
aI27
aI88
aI77
aI44
aI79
aI79
aI17
aI77
aI44
aI27
aI11
aI50
aI44
aI41
aI50
aI27
aI73
aI73
aI27
aI73
aI63
aI92
aI97
aI11
aI11
aI11
aI77
aI97
aI11
aI97
aI6
aI3
aI28
aI77
aI99
aI63
aI85
aI85
aI77
aI50
aI6
aI62
aI80
aI31
aI50
aI50
aI6
aI6
aI6
aI6
aI6
aI80
aI3
aI53
aI6
aI6
aI31
aI63
aI92
aI88
aI50
aI53
aI53
aI88
asg28
(lp165
sg30
F1.0231531042489885
sg31
I783
sg32
F1059.5935192354393
sg33
F1068.3189794191546
sg34
I334
sbsg35
g36
sg37
(iDraughtCEMadmin
Player
p166
(dp167
g11
g12
sg13
(lp168
I1
aI1
aI2
aI1
aI0
aI2
aI2
aI1
aI1
aI1
aI1
aI2
aI2
aI2
aI1
aI2
aI1
aI2
aI0
aI1
aI1
aI0
aI1
aI1
aI1
aI2
aI1
aI2
aI0
aI1
aI2
aI1
aI1
aI1
aI0
aI2
aI2
aI1
aI0
aI1
aI1
aI1
aI1
aI2
aI1
aI0
aI0
aI1
aI1
aI1
aI1
aI1
aI1
aI1
aI1
aI2
aI1
aI0
aI2
aI1
aI0
aI1
aI1
aI1
aI1
aI0
aI1
aI2
aI2
aI2
aI0
aI2
aI0
aI2
aI2
aI1
aI1
aI1
aI0
aI1
aI1
aI0
aI0
aI2
aI0
aI1
aI2
aI1
aI1
aI0
aI1
aI0
aI1
aI0
aI1
aI2
aI0
aI1
aI1
aI1
aI0
aI0
aI2
aI1
aI1
aI1
aI1
aI2
aI2
aI1
aI0
aI0
aI0
aI0
aI2
aI2
aI1
aI0
aI0
aI1
aI0
aI1
aI2
aI1
aI2
aI1
aI0
aI1
aI0
aI1
aI0
aI1
aI2
aI1
aI1
aI1
aI2
aI1
aI1
aI0
aI2
aI2
aI2
aI1
aI2
aI1
aI1
aI2
aI2
aI1
asg15
(lp169
I1
aI1
aI2
aI1
aI0
aI2
aI2
aI1
aI1
aI1
aI1
aI2
aI2
aI2
aI1
aI2
aI1
aI2
aI0
aI1
aI1
aI0
aI1
aI1
aI1
aI2
aI1
aI2
aI0
aI1
aI2
aI1
aI1
aI1
aI0
aI2
aI2
aI1
aI0
aI1
aI1
aI1
aI1
aI2
aI1
aI0
aI0
aI1
aI1
aI1
aI1
aI1
aI1
aI1
aI1
aI2
aI1
aI0
aI2
aI1
aI0
aI1
aI1
aI1
aI1
aI0
aI1
aI2
aI2
aI2
aI0
aI2
aI0
aI2
aI2
aI1
aI1
aI1
aI0
aI1
aI1
aI0
aI0
aI2
aI0
aI1
aI2
aI1
aI1
aI0
aI1
aI0
aI1
aI0
aI1
aI2
aI0
aI1
aI1
aI1
aI0
aI0
aI2
aI1
aI1
aI1
aI1
aI2
aI2
aI1
aI0
aI0
aI0
aI0
aI2
aI2
aI1
aI0
aI0
aI1
aI0
aI1
aI2
aI1
aI2
aI1
aI0
aI1
aI0
aI1
aI0
aI1
aI2
aI1
aI1
aI1
aI2
aI1
aI1
aI0
aI2
aI2
aI2
aI1
aI2
aI1
aI1
aI2
aI2
aI1
asg17
I00
sg18
F1.0337837837837838
sg19
F0.18951810481330542
sg20
I540
sg21
I0
sg22
(lp170
I62
aI63
aI71
asg24
I156
sg25
I88
sg26
(lp171
I38
aI32
aI48
aI19
aI60
aI17
aI5
aI27
aI40
aI33
aI24
aI77
aI32
aI96
aI55
aI27
aI10
aI55
aI58
aI70
aI7
aI44
aI86
aI77
aI64
aI63
aI20
aI63
aI62
aI53
aI15
aI5
aI62
aI47
aI36
aI41
aI14
aI2
aI31
aI58
aI33
aI33
aI33
aI31
aI73
aI96
aI33
aI15
aI28
aI28
aI31
aI11
aI32
aI15
aI85
aI11
aI85
aI3
aI3
aI85
aI44
aI38
aI63
aI80
aI11
aI64
aI32
aI44
aI77
aI32
aI94
aI30
aI11
aI55
aI28
aI20
aI17
aI44
aI27
aI79
aI79
aI1
aI31
aI41
aI71
aI6
aI66
aI79
aI66
aI73
aI71
aI44
aI85
aI73
aI9
aI44
aI67
aI6
aI79
aI9
aI6
aI20
aI20
aI67
aI79
aI9
aI20
aI9
aI27
aI11
aI53
aI27
aI73
aI30
aI53
aI44
aI27
aI30
aI73
aI11
aI77
aI73
aI99
aI9
aI99
aI99
aI9
aI31
aI9
aI31
aI97
aI9
aI92
aI44
aI20
aI50
aI50
aI50
aI97
aI99
aI99
aI97
aI97
aI97
aI62
aI63
aI71
aI50
aI50
aI53
aI71
asg28
(lp172
sg30
F1.0282669720328963
sg31
I549
sg32
F1065.4524752051082
sg33
F1075.4655622617884
sg34
I327
sbsba(iDraughtCEMadmin
Table
p173
(dp174
g8
(iDraughtCEMadmin
Player
p175
(dp176
g11
g12
sg13
(lp177
I1
aI1
aI1
aI2
aI2
aI1
aI1
aI1
aI2
aI1
aI1
aI1
aI2
aI1
aI0
aI0
aI1
aI1
aI2
aI2
aI1
aI1
aI0
aI2
aI1
aI2
aI1
aI0
aI0
aI1
aI1
aI1
aI1
aI0
aI1
aI1
aI2
aI2
aI0
aI2
aI1
aI2
aI1
aI2
aI2
aI1
aI2
aI0
aI2
aI2
aI1
aI1
aI1
aI2
aI2
aI2
aI0
aI1
aI0
aI1
aI0
aI2
aI2
aI0
aI2
aI0
aI1
aI1
aI1
aI1
aI1
aI1
aI0
aI1
aI1
aI1
aI2
aI1
aI1
aI0
aI0
aI1
aI2
aI0
aI0
aI1
aI0
aI1
aI0
aI0
aI1
aI2
aI1
aI2
aI0
aI1
aI1
aI1
aI0
aI1
aI1
aI1
aI2
aI1
aI1
aI2
aI1
aI0
aI2
aI2
aI1
aI1
aI2
aI1
aI0
aI1
aI1
aI1
aI2
aI0
aI1
aI2
aI0
aI0
aI2
aI0
aI1
aI1
aI2
aI1
aI1
aI0
aI1
aI0
aI1
aI1
aI0
aI1
aI1
aI0
aI1
aI0
aI1
aI2
aI1
aI2
aI1
aI0
aI0
aI2
asg15
(lp178
I1
aI1
aI1
aI2
aI2
aI1
aI1
aI1
aI2
aI1
aI1
aI1
aI2
aI1
aI0
aI0
aI1
aI1
aI2
aI2
aI1
aI1
aI0
aI2
aI1
aI2
aI1
aI0
aI0
aI1
aI1
aI1
aI1
aI0
aI1
aI1
aI2
aI2
aI0
aI2
aI1
aI2
aI1
aI2
aI2
aI1
aI2
aI0
aI2
aI2
aI1
aI1
aI1
aI2
aI2
aI2
aI0
aI1
aI0
aI1
aI0
aI2
aI2
aI0
aI2
aI0
aI1
aI1
aI1
aI1
aI1
aI1
aI0
aI1
aI1
aI1
aI2
aI1
aI1
aI0
aI0
aI1
aI2
aI0
aI0
aI1
aI0
aI1
aI0
aI0
aI1
aI2
aI1
aI2
aI0
aI1
aI1
aI1
aI0
aI1
aI1
aI1
aI2
aI1
aI1
aI2
aI1
aI0
aI2
aI2
aI1
aI1
aI2
aI1
aI0
aI1
aI1
aI1
aI2
aI0
aI1
aI2
aI0
aI0
aI2
aI0
aI1
aI1
aI2
aI1
aI1
aI0
aI1
aI0
aI1
aI1
aI0
aI1
aI1
aI0
aI1
aI0
aI1
aI2
aI1
aI2
aI1
aI0
aI0
aI2
asg17
I00
sg18
F1.0202702702702702
sg19
F-0.72999075430359428
sg20
I551
sg21
I0
sg22
(lp179
I77
aI3
aI50
asg24
I153
sg25
I97
sg26
(lp180
I47
aI2
aI57
aI25
aI93
aI22
aI1
aI36
aI93
aI29
aI72
aI57
aI40
aI34
aI19
aI72
aI15
aI22
aI74
aI27
aI41
aI64
aI22
aI55
aI14
aI87
aI58
aI22
aI32
aI1
aI14
aI57
aI16
aI6
aI64
aI36
aI47
aI9
aI32
aI57
aI62
aI27
aI17
aI94
aI27
aI68
aI55
aI92
aI92
aI92
aI63
aI28
aI79
aI44
aI50
aI99
aI85
aI50
aI3
aI17
aI6
aI99
aI50
aI80
aI96
aI55
aI63
aI44
aI73
aI68
aI28
aI79
aI50
aI6
aI92
aI62
aI17
aI71
aI66
aI28
aI28
aI6
aI50
aI66
aI92
aI28
aI73
aI30
aI85
aI62
aI53
aI53
aI30
aI27
aI62
aI62
aI30
aI11
aI11
aI99
aI73
aI85
aI94
aI11
aI41
aI68
aI3
aI71
aI6
aI77
aI77
aI71
aI6
aI77
aI11
aI71
aI50
aI62
aI62
aI53
aI50
aI62
aI80
aI99
aI20
aI20
aI53
aI9
aI28
aI28
aI9
aI20
aI20
aI31
aI31
aI88
aI73
aI77
aI92
aI99
aI31
aI50
aI31
aI88
aI20
aI88
aI88
aI88
aI77
aI3
aI50
asg28
(lp181
sg30
F1.0412250093249664
sg31
I764
sg32
F1065.5591111322108
sg33
F1079.1602779209431
sg34
I330
sbsg35
g36
sg37
(iDraughtCEMadmin
Player
p182
(dp183
g11
g12
sg13
(lp184
I2
aI2
aI1
aI1
aI0
aI1
aI1
aI1
aI1
aI2
aI1
aI1
aI2
aI0
aI1
aI0
aI1
aI2
aI2
aI2
aI2
aI1
aI1
aI1
aI2
aI2
aI0
aI2
aI2
aI1
aI0
aI1
aI1
aI1
aI1
aI2
aI0
aI1
aI1
aI1
aI1
aI1
aI1
aI1
aI1
aI2
aI2
aI1
aI1
aI2
aI0
aI1
aI1
aI1
aI2
aI0
aI1
aI0
aI2
aI1
aI0
aI1
aI0
aI1
aI2
aI2
aI1
aI1
aI2
aI1
aI1
aI1
aI0
aI1
aI1
aI2
aI1
aI0
aI0
aI1
aI0
aI1
aI2
aI0
aI1
aI0
aI0
aI0
aI1
aI1
aI1
aI0
aI2
aI1
aI1
aI0
aI1
aI1
aI0
aI1
aI2
aI1
aI2
aI2
aI2
aI0
aI1
aI1
aI0
aI0
aI0
aI2
aI2
aI1
aI0
aI1
aI2
aI2
aI0
aI0
aI1
aI0
aI2
aI2
aI1
aI1
aI2
aI1
aI2
aI2
aI1
aI1
aI1
aI1
aI1
aI2
aI2
aI1
aI0
aI1
aI1
aI1
aI1
aI1
aI0
aI1
aI1
aI1
aI1
aI0
asg15
(lp185
I2
aI2
aI1
aI1
aI0
aI1
aI1
aI1
aI1
aI2
aI1
aI1
aI2
aI0
aI1
aI0
aI1
aI2
aI2
aI2
aI2
aI1
aI1
aI1
aI2
aI2
aI0
aI2
aI2
aI1
aI0
aI1
aI1
aI1
aI1
aI2
aI0
aI1
aI1
aI1
aI1
aI1
aI1
aI1
aI1
aI2
aI2
aI1
aI1
aI2
aI0
aI1
aI1
aI1
aI2
aI0
aI1
aI0
aI2
aI1
aI0
aI1
aI0
aI1
aI2
aI2
aI1
aI1
aI2
aI1
aI1
aI1
aI0
aI1
aI1
aI2
aI1
aI0
aI0
aI1
aI0
aI1
aI2
aI0
aI1
aI0
aI0
aI0
aI1
aI1
aI1
aI0
aI2
aI1
aI1
aI0
aI1
aI1
aI0
aI1
aI2
aI1
aI2
aI2
aI2
aI0
aI1
aI1
aI0
aI0
aI0
aI2
aI2
aI1
aI0
aI1
aI2
aI2
aI0
aI0
aI1
aI0
aI2
aI2
aI1
aI1
aI2
aI1
aI2
aI2
aI1
aI1
aI1
aI1
aI1
aI2
aI2
aI1
aI0
aI1
aI1
aI1
aI1
aI1
aI0
aI1
aI1
aI1
aI1
aI0
asg17
I00
sg18
F1.0472972972972974
sg19
F0.21969758405859921
sg20
I537
sg21
I0
sg22
(lp186
I68
aI68
aI97
asg24
I156
sg25
I50
sg26
(lp187
I0
aI76
aI1
aI13
aI81
aI29
aI95
aI93
aI13
aI69
aI49
aI33
aI61
aI42
aI29
aI5
aI9
aI31
aI86
aI9
aI77
aI47
aI80
aI31
aI94
aI94
aI77
aI82
aI80
aI68
aI57
aI62
aI68
aI71
aI62
aI71
aI61
aI68
aI38
aI32
aI14
aI66
aI63
aI20
aI20
aI63
aI63
aI20
aI92
aI63
aI28
aI63
aI28
aI55
aI55
aI11
aI11
aI11
aI85
aI85
aI97
aI11
aI85
aI97
aI3
aI99
aI28
aI3
aI66
aI80
aI97
aI38
aI38
aI77
aI80
aI85
aI55
aI71
aI97
aI79
aI85
aI85
aI71
aI63
aI80
aI79
aI97
aI32
aI32
aI77
aI92
aI3
aI11
aI17
aI28
aI80
aI79
aI66
aI3
aI3
aI9
aI71
aI63
aI3
aI71
aI9
aI67
aI67
aI27
aI79
aI20
aI41
aI31
aI73
aI97
aI92
aI80
aI53
aI20
aI97
aI28
aI68
aI20
aI71
aI77
aI94
aI68
aI53
aI71
aI71
aI41
aI6
aI6
aI41
aI68
aI80
aI53
aI31
aI6
aI88
aI88
aI97
aI88
aI53
aI68
aI68
aI71
aI88
aI88
aI53
aI97
asg28
(lp188
sg30
F1.0408747918963608
sg31
I655
sg32
F1067.630060139604
sg33
F1082.0590318830766
sg34
I325
sbsba(iDraughtCEMadmin
Table
p189
(dp190
g8
(iDraughtCEMadmin
Player
p191
(dp192
g11
g12
sg13
(lp193
I0
aI2
aI2
aI0
aI1
aI1
aI2
aI2
aI1
aI2
aI2
aI0
aI1
aI1
aI1
aI1
aI0
aI1
aI2
aI1
aI0
aI1
aI1
aI1
aI2
aI1
aI1
aI1
aI0
aI2
aI2
aI0
aI1
aI1
aI1
aI1
aI1
aI1
aI2
aI1
aI0
aI0
aI0
aI1
aI2
aI1
aI0
aI1
aI1
aI2
aI2
aI2
aI1
aI1
aI2
aI2
aI1
aI2
aI1
aI1
aI1
aI2
aI2
aI1
aI2
aI2
aI0
aI1
aI1
aI1
aI1
aI0
aI0
aI2
aI1
aI0
aI1
aI2
aI1
aI1
aI2
aI0
aI1
aI1
aI1
aI1
aI1
aI1
aI1
aI2
aI0
aI2
aI2
aI1
aI1
aI1
aI1
aI0
aI1
aI1
aI1
aI2
aI1
aI1
aI2
aI0
aI2
aI1
aI1
aI1
aI0
aI0
aI1
aI1
aI0
aI0
aI1
aI1
aI2
aI1
aI2
aI1
aI2
aI1
aI0
aI1
aI0
aI1
aI0
aI1
aI1
aI0
aI0
aI1
aI0
aI1
aI2
aI0
aI1
aI0
aI0
aI0
aI1
aI1
aI2
aI0
aI2
aI0
aI1
aI0
asg15
(lp194
I0
aI2
aI2
aI0
aI1
aI1
aI2
aI2
aI1
aI2
aI2
aI0
aI1
aI1
aI1
aI1
aI0
aI1
aI2
aI1
aI0
aI1
aI1
aI1
aI2
aI1
aI1
aI1
aI0
aI2
aI2
aI0
aI1
aI1
aI1
aI1
aI1
aI1
aI2
aI1
aI0
aI0
aI0
aI1
aI2
aI1
aI0
aI1
aI1
aI2
aI2
aI2
aI1
aI1
aI2
aI2
aI1
aI2
aI1
aI1
aI1
aI2
aI2
aI1
aI2
aI2
aI0
aI1
aI1
aI1
aI1
aI0
aI0
aI2
aI1
aI0
aI1
aI2
aI1
aI1
aI2
aI0
aI1
aI1
aI1
aI1
aI1
aI1
aI1
aI2
aI0
aI2
aI2
aI1
aI1
aI1
aI1
aI0
aI1
aI1
aI1
aI2
aI1
aI1
aI2
aI0
aI2
aI1
aI1
aI1
aI0
aI0
aI1
aI1
aI0
aI0
aI1
aI1
aI2
aI1
aI2
aI1
aI2
aI1
aI0
aI1
aI0
aI1
aI0
aI1
aI1
aI0
aI0
aI1
aI0
aI1
aI2
aI0
aI1
aI0
aI0
aI0
aI1
aI1
aI2
aI0
aI2
aI0
aI1
aI0
asg17
I00
sg18
F1.0135135135135136
sg19
F-0.91311797212320023
sg20
I552
sg21
I0
sg22
(lp195
I28
aI28
aI20
asg24
I151
sg25
I99
sg26
(lp196
I49
aI47
aI18
aI10
aI84
aI8
aI46
aI91
aI10
aI29
aI84
aI5
aI58
aI23
aI22
aI56
aI83
aI70
aI13
aI86
aI93
aI12
aI47
aI96
aI70
aI49
aI35
aI33
aI17
aI66
aI23
aI0
aI83
aI80
aI32
aI15
aI48
aI2
aI79
aI41
aI48
aI61
aI2
aI82
aI35
aI17
aI33
aI57
aI15
aI86
aI94
aI38
aI79
aI63
aI92
aI28
aI92
aI80
aI1
aI86
aI85
aI97
aI50
aI38
aI97
aI3
aI11
aI17
aI17
aI11
aI2
aI2
aI3
aI53
aI6
aI6
aI92
aI63
aI85
aI66
aI77
aI80
aI27
aI71
aI85
aI44
aI92
aI17
aI17
aI62
aI62
aI92
aI77
aI6
aI41
aI77
aI77
aI97
aI11
aI30
aI62
aI79
aI41
aI41
aI44
aI44
aI44
aI41
aI11
aI94
aI68
aI6
aI71
aI11
aI11
aI80
aI3
aI97
aI53
aI53
aI53
aI53
aI31
aI63
aI63
aI88
aI88
aI88
aI31
aI31
aI31
aI9
aI31
aI31
aI31
aI44
aI11
aI97
aI9
aI73
aI88
aI88
aI20
aI20
aI9
aI20
aI20
aI9
aI28
aI28
aI20
asg28
(lp197
sg30
F1.0419972583418755
sg31
I555
sg32
F1051.5358841613229
sg33
F1065.2226959104316
sg34
I334
sbsg35
g36
sg37
(iDraughtCEMadmin
Player
p198
(dp199
g11
g12
sg13
(lp200
I1
aI2
aI1
aI0
aI0
aI1
aI1
aI1
aI2
aI2
aI2
aI1
aI2
aI2
aI2
aI0
aI1
aI0
aI1
aI1
aI1
aI2
aI2
aI2
aI0
aI2
aI1
aI0
aI1
aI1
aI2
aI1
aI0
aI2
aI1
aI0
aI2
aI2
aI1
aI1
aI2
aI0
aI1
aI1
aI1
aI0
aI0
aI0
aI0
aI2
aI1
aI2
aI1
aI0
aI1
aI1
aI2
aI1
aI2
aI1
aI2
aI0
aI2
aI2
aI1
aI0
aI1
aI2
aI2
aI2
aI1
aI1
aI2
aI2
aI1
aI0
aI0
aI1
aI2
aI1
aI1
aI2
aI2
aI0
aI2
aI0
aI0
aI2
aI1
aI1
aI1
aI0
aI1
aI1
aI1
aI0
aI1
aI2
aI2
aI1
aI2
aI0
aI1
aI1
aI1
aI0
aI0
aI0
aI1
aI1
aI0
aI1
aI1
aI1
aI2
aI1
aI2
aI0
aI2
aI1
aI1
aI2
aI1
aI0
aI0
aI0
aI0
aI1
aI1
aI1
aI1
aI1
aI1
aI0
aI1
aI0
aI1
aI0
aI1
aI1
aI2
aI2
aI0
aI1
aI0
aI1
aI1
aI0
aI0
aI1
asg15
(lp201
I1
aI2
aI1
aI0
aI0
aI1
aI1
aI1
aI2
aI2
aI2
aI1
aI2
aI2
aI2
aI0
aI1
aI0
aI1
aI1
aI1
aI2
aI2
aI2
aI0
aI2
aI1
aI0
aI1
aI1
aI2
aI1
aI0
aI2
aI1
aI0
aI2
aI2
aI1
aI1
aI2
aI0
aI1
aI1
aI1
aI0
aI0
aI0
aI0
aI2
aI1
aI2
aI1
aI0
aI1
aI1
aI2
aI1
aI2
aI1
aI2
aI0
aI2
aI2
aI1
aI0
aI1
aI2
aI2
aI2
aI1
aI1
aI2
aI2
aI1
aI0
aI0
aI1
aI2
aI1
aI1
aI2
aI2
aI0
aI2
aI0
aI0
aI2
aI1
aI1
aI1
aI0
aI1
aI1
aI1
aI0
aI1
aI2
aI2
aI1
aI2
aI0
aI1
aI1
aI1
aI0
aI0
aI0
aI1
aI1
aI0
aI1
aI1
aI1
aI2
aI1
aI2
aI0
aI2
aI1
aI1
aI2
aI1
aI0
aI0
aI0
aI0
aI1
aI1
aI1
aI1
aI1
aI1
aI0
aI1
aI0
aI1
aI0
aI1
aI1
aI2
aI2
aI0
aI1
aI0
aI1
aI1
aI0
aI0
aI1
asg17
I00
sg18
F1.0202702702702702
sg19
F-1.3946110819639672
sg20
I559
sg21
I0
sg22
(lp202
I92
aI62
aI99
asg24
I152
sg25
I20
sg26
(lp203
I70
aI42
aI69
aI57
aI72
aI57
aI74
aI26
aI37
aI3
aI82
aI76
aI67
aI23
aI74
aI51
aI47
aI16
aI27
aI44
aI10
aI15
aI33
aI57
aI16
aI6
aI66
aI3
aI7
aI75
aI64
aI94
aI64
aI88
aI86
aI23
aI41
aI86
aI35
aI58
aI80
aI15
aI7
aI44
aI77
aI96
aI55
aI5
aI36
aI44
aI79
aI61
aI80
aI30
aI61
aI14
aI3
aI50
aI50
aI50
aI63
aI28
aI28
aI44
aI6
aI9
aI68
aI96
aI2
aI3
aI9
aI44
aI41
aI68
aI28
aI9
aI55
aI55
aI28
aI92
aI3
aI71
aI88
aI85
aI3
aI63
aI71
aI71
aI44
aI85
aI62
aI85
aI17
aI17
aI92
aI80
aI3
aI6
aI66
aI3
aI94
aI94
aI31
aI3
aI88
aI88
aI41
aI53
aI80
aI50
aI88
aI53
aI77
aI11
aI6
aI77
aI68
aI3
aI50
aI6
aI68
aI28
aI50
aI97
aI97
aI53
aI9
aI53
aI92
aI92
aI53
aI97
aI97
aI53
aI63
aI63
aI88
aI31
aI31
aI9
aI9
aI9
aI97
aI99
aI99
aI99
aI99
aI73
aI92
aI62
aI99
asg28
(lp204
sg30
F1.0603044364293872
sg31
I328
sg32
F1065.096100055526
sg33
F1084.6788497932016
sg34
I339
sbsba(iDraughtCEMadmin
Table
p205
(dp206
g8
(iDraughtCEMadmin
Player
p207
(dp208
g11
g12
sg13
(lp209
I1
aI1
aI1
aI2
aI0
aI1
aI0
aI2
aI2
aI2
aI1
aI1
aI1
aI0
aI1
aI1
aI1
aI0
aI0
aI1
aI1
aI0
aI2
aI1
aI2
aI1
aI1
aI1
aI0
aI1
aI2
aI1
aI2
aI1
aI2
aI2
aI2
aI1
aI2
aI1
aI1
aI1
aI1
aI1
aI2
aI0
aI1
aI2
aI0
aI1
aI1
aI1
aI1
aI0
aI0
aI1
aI2
aI2
aI1
aI1
aI2
aI0
aI1
aI1
aI1
aI1
aI1
aI1
aI0
aI0
aI1
aI1
aI1
aI1
aI1
aI1
aI2
aI2
aI1
aI1
aI1
aI0
aI1
aI1
aI2
aI2
aI1
aI1
aI2
aI2
aI0
aI1
aI1
aI1
aI1
aI1
aI2
aI1
aI1
aI0
aI1
aI1
aI0
aI0
aI1
aI0
aI1
aI2
aI1
aI1
aI2
aI1
aI1
aI1
aI1
aI0
aI1
aI1
aI1
aI1
aI0
aI2
aI0
aI1
aI0
aI2
aI1
aI0
aI0
aI1
aI1
aI1
aI1
aI1
aI2
aI0
aI0
aI1
aI1
aI0
aI0
aI1
aI1
aI0
aI0
aI1
aI0
aI2
aI1
aI2
asg15
(lp210
I1
aI1
aI1
aI2
aI0
aI1
aI0
aI2
aI2
aI2
aI1
aI1
aI1
aI0
aI1
aI1
aI1
aI0
aI0
aI1
aI1
aI0
aI2
aI1
aI2
aI1
aI1
aI1
aI0
aI1
aI2
aI1
aI2
aI1
aI2
aI2
aI2
aI1
aI2
aI1
aI1
aI1
aI1
aI1
aI2
aI0
aI1
aI2
aI0
aI1
aI1
aI1
aI1
aI0
aI0
aI1
aI2
aI2
aI1
aI1
aI2
aI0
aI1
aI1
aI1
aI1
aI1
aI1
aI0
aI0
aI1
aI1
aI1
aI1
aI1
aI1
aI2
aI2
aI1
aI1
aI1
aI0
aI1
aI1
aI2
aI2
aI1
aI1
aI2
aI2
aI0
aI1
aI1
aI1
aI1
aI1
aI2
aI1
aI1
aI0
aI1
aI1
aI0
aI0
aI1
aI0
aI1
aI2
aI1
aI1
aI2
aI1
aI1
aI1
aI1
aI0
aI1
aI1
aI1
aI1
aI0
aI2
aI0
aI1
aI0
aI2
aI1
aI0
aI0
aI1
aI1
aI1
aI1
aI1
aI2
aI0
aI0
aI1
aI1
aI0
aI0
aI1
aI1
aI0
aI0
aI1
aI0
aI2
aI1
aI2
asg17
I00
sg18
F0.97972972972972971
sg19
F-1.1808823262515262
sg20
I535
sg21
I0
sg22
(lp211
I11
aI11
aI9
asg24
I148
sg25
I73
sg26
(lp212
I23
aI41
aI26
aI45
aI68
aI54
aI40
aI39
aI78
aI41
aI83
aI28
aI61
aI64
aI66
aI92
aI24
aI17
aI95
aI74
aI53
aI58
aI86
aI75
aI87
aI35
aI94
aI58
aI57
aI38
aI86
aI47
aI70
aI13
aI17
aI11
aI35
aI35
aI28
aI11
aI41
aI5
aI7
aI55
aI44
aI96
aI33
aI82
aI77
aI2
aI15
aI47
aI63
aI17
aI44
aI5
aI94
aI77
aI88
aI6
aI62
aI62
aI44
aI38
aI79
aI28
aI28
aI6
aI96
aI17
aI68
aI62
aI6
aI41
aI2
aI2
aI97
aI62
aI38
aI44
aI41
aI11
aI1
aI68
aI53
aI9
aI11
aI80
aI80
aI79
aI1
aI41
aI53
aI68
aI85
aI97
aI88
aI9
aI92
aI92
aI88
aI17
aI9
aI9
aI92
aI63
aI11
aI27
aI97
aI92
aI63
aI67
aI71
aI67
aI71
aI27
aI67
aI71
aI80
aI80
aI27
aI50
aI9
aI44
aI44
aI9
aI88
aI27
aI30
aI27
aI41
aI41
aI31
aI30
aI30
aI30
aI27
aI88
aI41
aI11
aI88
aI9
aI97
aI11
aI28
aI9
aI99
aI20
aI11
aI11
aI9
asg28
(lp213
sg30
F1.0137500945660416
sg31
I534
sg32
F1060.3779709275861
sg33
F1063.9746618638499
sg34
I327
sbsg35
g36
sg37
(iDraughtCEMadmin
Player
p214
(dp215
g11
g12
sg13
(lp216
I2
aI2
aI2
aI2
aI1
aI0
aI1
aI2
aI2
aI2
aI2
aI2
aI2
aI2
aI1
aI2
aI1
aI0
aI1
aI1
aI1
aI1
aI2
aI1
aI1
aI1
aI2
aI1
aI2
aI1
aI0
aI2
aI0
aI0
aI1
aI1
aI1
aI1
aI0
aI0
aI0
aI2
aI2
aI1
aI0
aI2
aI2
aI2
aI1
aI0
aI1
aI1
aI0
aI1
aI1
aI2
aI2
aI0
aI1
aI1
aI0
aI1
aI1
aI2
aI2
aI1
aI2
aI1
aI1
aI1
aI2
aI1
aI1
aI0
aI1
aI2
aI0
aI1
aI2
aI0
aI1
aI1
aI0
aI1
aI0
aI1
aI1
aI0
aI0
aI1
aI1
aI0
aI1
aI1
aI1
aI0
aI2
aI1
aI2
aI0
aI0
aI0
aI1
aI0
aI1
aI1
aI1
aI0
aI1
aI2
aI0
aI2
aI1
aI0
aI1
aI1
aI1
aI0
aI0
aI0
aI1
aI2
aI0
aI1
aI2
aI1
aI2
aI2
aI1
aI1
aI1
aI2
aI1
aI0
aI0
aI1
aI1
aI1
aI1
aI0
aI1
aI1
aI0
aI1
aI0
aI1
aI1
aI2
aI0
aI0
asg15
(lp217
I2
aI2
aI2
aI2
aI1
aI0
aI1
aI2
aI2
aI2
aI2
aI2
aI2
aI2
aI1
aI2
aI1
aI0
aI1
aI1
aI1
aI1
aI2
aI1
aI1
aI1
aI2
aI1
aI2
aI1
aI0
aI2
aI0
aI0
aI1
aI1
aI1
aI1
aI0
aI0
aI0
aI2
aI2
aI1
aI0
aI2
aI2
aI2
aI1
aI0
aI1
aI1
aI0
aI1
aI1
aI2
aI2
aI0
aI1
aI1
aI0
aI1
aI1
aI2
aI2
aI1
aI2
aI1
aI1
aI1
aI2
aI1
aI1
aI0
aI1
aI2
aI0
aI1
aI2
aI0
aI1
aI1
aI0
aI1
aI0
aI1
aI1
aI0
aI0
aI1
aI1
aI0
aI1
aI1
aI1
aI0
aI2
aI1
aI2
aI0
aI0
aI0
aI1
aI0
aI1
aI1
aI1
aI0
aI1
aI2
aI0
aI2
aI1
aI0
aI1
aI1
aI1
aI0
aI0
aI0
aI1
aI2
aI0
aI1
aI2
aI1
aI2
aI2
aI1
aI1
aI1
aI2
aI1
aI0
aI0
aI1
aI1
aI1
aI1
aI0
aI1
aI1
aI0
aI1
aI0
aI1
aI1
aI2
aI0
aI0
asg17
I00
sg18
F1.0067567567567568
sg19
F-2.1968718426933949
sg20
I536
sg21
I0
sg22
(lp218
I44
aI44
aI73
asg24
I149
sg25
I9
sg26
(lp219
I59
aI10
aI93
aI41
aI1
aI6
aI74
aI79
aI6
aI7
aI57
aI50
aI59
aI44
aI50
aI79
aI92
aI87
aI40
aI92
aI6
aI63
aI38
aI96
aI92
aI3
aI1
aI3
aI92
aI85
aI85
aI85
aI85
aI1
aI3
aI97
aI1
aI1
aI68
aI3
aI17
aI64
aI62
aI53
aI3
aI64
aI28
aI62
aI96
aI68
aI62
aI94
aI62
aI62
aI94
aI94
aI41
aI20
aI62
aI94
aI62
aI62
aI94
aI41
aI28
aI94
aI20
aI3
aI53
aI20
aI17
aI79
aI63
aI77
aI44
aI96
aI44
aI73
aI30
aI77
aI77
aI53
aI1
aI32
aI41
aI17
aI62
aI68
aI27
aI17
aI73
aI3
aI3
aI27
aI88
aI73
aI73
aI63
aI80
aI50
aI88
aI27
aI80
aI44
aI79
aI50
aI27
aI27
aI27
aI67
aI67
aI67
aI88
aI44
aI88
aI27
aI73
aI63
aI92
aI30
aI73
aI30
aI30
aI92
aI92
aI31
aI30
aI20
aI97
aI44
aI44
aI97
aI88
aI73
aI88
aI99
aI88
aI31
aI88
aI28
aI77
aI73
aI20
aI99
aI20
aI20
aI99
aI99
aI44
aI44
aI73
asg28
(lp220
sg30
F1.0698629122727892
sg31
I964
sg32
F1075.7877669405855
sg33
F1097.9033635248261
sg34
I329
sbsbasS'P3'
p221
(lp222
(lp223
a(lp224
a(lp225
a(lp226
a(lp227
a(lp228
a(lp229
a(lp230
a(lp231
a(lp232
a(lp233
a(lp234
a(lp235
a(lp236
a(lp237
a(lp238
a(lp239
a(lp240
a(lp241
a(lp242
a(lp243
a(lp244
a(lp245
a(lp246
a(lp247
a(lp248
a(lp249
a(lp250
a(lp251
a(lp252
a(lp253
a(lp254
a(lp255
a(lp256
a(lp257
a(lp258
a(lp259
a(lp260
a(lp261
a(lp262
a(lp263
a(lp264
a(lp265
a(lp266
a(lp267
a(lp268
a(lp269
a(lp270
a(lp271
a(lp272
a(lp273
a(lp274
a(lp275
a(lp276
a(lp277
a(lp278
a(lp279
a(lp280
a(lp281
a(lp282
a(lp283
a(lp284
a(lp285
a(lp286
a(lp287
a(lp288
a(lp289
a(lp290
a(lp291
a(lp292
a(lp293
a(lp294
a(lp295
a(lp296
a(lp297
a(lp298
a(lp299
a(lp300
a(lp301
a(lp302
a(lp303
a(lp304
a(lp305
a(lp306
a(lp307
a(lp308
a(lp309
a(lp310
a(lp311
a(lp312
a(lp313
a(lp314
a(lp315
a(lp316
a(lp317
a(lp318
a(lp319
a(lp320
a(lp321
a(lp322
asS'P8'
p323
(lp324
(lp325
a(lp326
a(lp327
a(lp328
a(lp329
a(lp330
a(lp331
a(lp332
a(lp333
a(lp334
a(lp335
a(lp336
a(lp337
a(lp338
a(lp339
a(lp340
a(lp341
a(lp342
a(lp343
a(lp344
a(lp345
a(lp346
a(lp347
a(lp348
a(lp349
a(lp350
a(lp351
a(lp352
a(lp353
a(lp354
a(lp355
a(lp356
a(lp357
a(lp358
a(lp359
a(lp360
a(lp361
a(lp362
a(lp363
a(lp364
a(lp365
a(lp366
a(lp367
a(lp368
a(lp369
a(lp370
a(lp371
a(lp372
a(lp373
a(lp374
a(lp375
a(lp376
a(lp377
a(lp378
a(lp379
a(lp380
a(lp381
a(lp382
a(lp383
a(lp384
a(lp385
a(lp386
a(lp387
a(lp388
a(lp389
a(lp390
a(lp391
a(lp392
a(lp393
a(lp394
a(lp395
a(lp396
a(lp397
a(lp398
a(lp399
a(lp400
a(lp401
a(lp402
a(lp403
a(lp404
a(lp405
a(lp406
a(lp407
a(lp408
a(lp409
a(lp410
a(lp411
a(lp412
a(lp413
a(lp414
a(lp415
a(lp416
a(lp417
a(lp418
a(lp419
a(lp420
a(lp421
a(lp422
a(lp423
a(lp424
asS'Player_on_id'
p425
(lp426
(iDraughtCEMadmin
Player
p427
(dp428
g11
S'tournament rating'
p429
sg13
(lp430
I0
aI1
aI2
aI1
aI2
aI0
aI2
aI0
aI1
aI1
aI1
aI0
aI2
aI1
aI0
aI2
aI0
aI0
aI2
aI0
aI2
aI0
aI1
aI1
aI1
aI0
aI2
aI1
aI1
aI1
aI1
aI1
aI1
aI1
aI0
aI1
aI1
aI1
aI1
aI1
aI1
aI0
asg15
(lp431
I0
aI1
aI2
aI1
aI2
aI0
aI2
aI0
aI1
aI1
aI1
aI0
aI2
aI1
aI0
aI2
aI0
aI0
aI2
aI0
aI2
aI0
aI1
aI1
aI1
aI0
aI2
aI1
aI1
aI1
aI1
aI1
aI1
aI1
aI0
aI1
aI1
aI1
aI1
aI1
aI1
aI0
asg17
I00
sg18
F0.90476190476190477
sg19
F-0.45024761996209012
sg20
I246
sg21
I0
sg22
(lp432
I99
aI15
aI49
aI89
aI83
aI13
asg24
I38
sg25
I0
sg26
(lp433
I50
aI93
aI47
aI27
aI14
aI85
aI56
aI47
aI16
aI49
aI66
aI78
aI89
aI67
aI87
aI86
aI26
aI44
aI35
aI72
aI8
aI60
aI25
aI5
aI23
aI65
aI82
aI89
aI82
aI64
aI66
aI74
aI48
aI99
aI15
aI49
aI89
aI83
aI83
aI10
aI10
aI13
asg28
(lp434
I40
aI41
aI41
aI43
aI42
aI36
aI44
aI43
aI37
aI37
aI44
aI43
aI38
aI38
aI38
aI44
aI44
aI39
aI40
aI39
aI40
asg30
F0.91646371498808332
sg31
I240
sg32
F1009.3484755402742
sg33
F979.80695411993304
sg34
I166
sba(iDraughtCEMadmin
Player
p435
(dp436
g11
S'tournament rating'
p437
sg13
(lp438
I2
aI2
aI1
aI1
aI0
aI2
aI2
aI2
aI0
aI1
aI1
aI2
aI0
aI1
aI1
aI1
aI1
aI2
aI0
aI1
aI2
aI2
aI1
aI0
aI2
aI0
aI0
aI1
aI1
aI2
aI1
aI2
aI1
aI0
aI1
aI0
aI1
aI1
aI1
aI1
aI1
aI0
aI1
aI1
aI1
aI2
aI0
aI1
aI1
aI1
aI1
aI2
aI1
aI1
aI1
aI0
aI2
aI0
aI1
aI2
aI1
aI1
aI0
aI0
aI1
aI0
aI2
aI1
aI1
aI1
aI0
aI1
aI1
aI0
aI1
aI1
aI1
aI1
aI1
aI0
aI2
aI0
aI2
aI1
aI1
aI2
aI1
aI0
aI0
aI2
aI0
aI1
aI1
aI1
aI1
aI0
aI0
aI1
aI0
aI2
aI2
aI1
aI0
aI2
aI1
aI0
aI1
aI0
asg15
(lp439
I2
aI2
aI1
aI1
aI0
aI2
aI2
aI2
aI0
aI1
aI1
aI2
aI0
aI1
aI1
aI1
aI1
aI2
aI0
aI1
aI2
aI2
aI1
aI0
aI2
aI0
aI0
aI1
aI1
aI2
aI1
aI2
aI1
aI0
aI1
aI0
aI1
aI1
aI1
aI1
aI1
aI0
aI1
aI1
aI1
aI2
aI0
aI1
aI1
aI1
aI1
aI2
aI1
aI1
aI1
aI0
aI2
aI0
aI1
aI2
aI1
aI1
aI0
aI0
aI1
aI0
aI2
aI1
aI1
aI1
aI0
aI1
aI1
aI0
aI1
aI1
aI1
aI1
aI1
aI0
aI2
aI0
aI2
aI1
aI1
aI2
aI1
aI0
aI0
aI2
aI0
aI1
aI1
aI1
aI1
aI0
aI0
aI1
aI0
aI2
aI2
aI1
aI0
aI2
aI1
aI0
aI1
aI0
asg17
I00
sg18
F0.95370370370370372
sg19
F-1.099913694043994
sg20
I530
sg21
I0
sg22
(lp440
I30
aI53
aI67
aI32
aI79
asg24
I103
sg25
I1
sg26
(lp441
I51
aI52
aI50
aI89
aI11
aI74
aI84
aI81
aI9
aI3
aI97
aI22
aI47
aI55
aI23
aI27
aI68
aI53
aI33
aI17
aI87
aI70
aI79
aI87
aI77
aI41
aI33
aI71
aI2
aI37
aI25
aI79
aI71
aI94
aI68
aI49
aI37
aI96
aI97
aI48
aI63
aI9
aI79
aI71
aI14
aI9
aI62
aI14
aI36
aI9
aI9
aI30
aI48
aI17
aI63
aI63
aI64
aI2
aI53
aI85
aI66
aI33
aI23
aI53
aI85
aI38
aI14
aI23
aI99
aI77
aI58
aI32
aI15
aI64
aI11
aI11
aI32
aI64
aI15
aI58
aI58
aI63
aI30
aI64
aI96
aI32
aI32
aI32
aI63
aI80
aI32
aI38
aI96
aI73
aI80
aI96
aI2
aI67
aI9
aI73
aI79
aI67
aI88
aI30
aI53
aI67
aI32
aI79
asg28
(lp442
sg30
F0.98443833393966373
sg31
I642
sg32
F1051.0516223371596
sg33
F1044.5445955835555
sg34
I320
sba(iDraughtCEMadmin
Player
p443
(dp444
g11
g437
sg13
(lp445
I1
aI2
aI0
aI0
aI1
aI0
aI2
aI1
aI2
aI1
aI0
aI2
aI2
aI2
aI0
aI1
aI1
aI1
aI2
aI0
aI1
aI1
aI1
aI1
aI2
aI1
aI1
aI2
aI1
aI0
aI1
aI1
aI2
aI2
aI1
aI1
aI1
aI0
aI1
aI1
aI1
aI0
aI1
aI0
aI2
aI1
aI2
aI2
aI1
aI0
aI2
aI1
aI1
aI2
aI2
aI0
aI1
aI0
aI1
aI1
aI0
aI1
aI1
aI1
aI2
aI1
aI1
aI2
aI1
aI1
aI0
aI2
aI1
aI1
aI1
aI0
aI0
aI2
aI0
aI1
aI0
aI2
aI1
aI2
aI1
aI0
aI0
aI1
aI1
aI0
aI2
aI1
aI0
aI1
aI1
aI0
aI2
aI1
asg15
(lp446
I1
aI2
aI0
aI0
aI1
aI0
aI2
aI1
aI2
aI1
aI0
aI2
aI2
aI2
aI0
aI1
aI1
aI1
aI2
aI0
aI1
aI1
aI1
aI1
aI2
aI1
aI1
aI2
aI1
aI0
aI1
aI1
aI2
aI2
aI1
aI1
aI1
aI0
aI1
aI1
aI1
aI0
aI1
aI0
aI2
aI1
aI2
aI2
aI1
aI0
aI2
aI1
aI1
aI2
aI2
aI0
aI1
aI0
aI1
aI1
aI0
aI1
aI1
aI1
aI2
aI1
aI1
aI2
aI1
aI1
aI0
aI2
aI1
aI1
aI1
aI0
aI0
aI2
aI0
aI1
aI0
aI2
aI1
aI2
aI1
aI0
aI0
aI1
aI1
aI0
aI2
aI1
aI0
aI1
aI1
aI0
aI2
aI1
asg17
I00
sg18
F1.010204081632653
sg19
F-0.13147734915087314
sg20
I505
sg21
I0
sg22
(lp447
I53
aI31
aI27
aI1
aI79
asg24
I99
sg25
I2
sg26
(lp448
I52
aI7
aI41
aI97
aI14
aI23
aI29
aI47
aI14
aI59
aI46
aI43
aI41
aI64
aI36
aI14
aI43
aI65
aI33
aI62
aI35
aI17
aI27
aI18
aI39
aI16
aI23
aI1
aI51
aI53
aI38
aI33
aI68
aI94
aI82
aI57
aI15
aI71
aI48
aI79
aI85
aI85
aI23
aI71
aI99
aI66
aI39
aI39
aI72
aI77
aI99
aI62
aI47
aI88
aI6
aI73
aI16
aI85
aI17
aI1
aI96
aI92
aI68
aI96
aI17
aI44
aI72
aI57
aI77
aI17
aI31
aI62
aI31
aI71
aI38
aI28
aI20
aI41
aI96
aI73
aI85
aI92
aI73
aI55
aI96
aI99
aI99
aI38
aI27
aI66
aI66
aI53
aI31
aI27
aI32
aI79
aI1
aI79
asg28
(lp449
I102
aI102
aI104
aI103
aI105
aI98
aI104
aI106
aI99
aI93
aI105
aI106
aI100
aI94
aI100
asg30
F1.0150261825225635
sg31
I417
sg32
F1039.2495095804218
sg33
F1044.3390557227797
sg34
I306
sbag118
a(iDraughtCEMadmin
Player
p450
(dp451
g11
g429
sg13
(lp452
I2
aI0
aI0
aI1
aI0
aI1
aI0
aI0
aI1
aI1
aI1
aI0
aI0
aI0
aI2
aI1
aI0
aI0
aI0
aI1
aI2
aI0
aI0
aI1
asg15
(lp453
I2
aI0
aI0
aI1
aI0
aI1
aI0
aI0
aI1
aI1
aI1
aI0
aI0
aI0
aI2
aI1
aI0
aI0
aI0
aI1
aI2
aI0
aI0
aI1
asg17
I00
sg18
F0.58333333333333337
sg19
F0.47767353046452854
sg20
I112
sg21
I0
sg22
(lp454
I55
aI3
aI46
aI84
aI21
aI81
asg24
I14
sg25
I4
sg26
(lp455
I55
aI74
aI63
aI76
aI42
aI5
aI68
aI56
aI90
aI12
aI52
aI57
aI96
aI46
aI54
aI45
aI55
aI3
aI46
aI84
aI54
aI21
aI43
aI81
asg28
(lp456
I20
aI21
aI21
aI22
aI23
aI7
aI22
aI24
aI7
aI16
aI22
aI24
aI7
aI18
aI17
aI24
aI25
aI8
aI19
aI19
aI17
asg30
F0.57258765950630797
sg31
I84
sg32
F908.96386846732867
sg33
F750.75855669314797
sg34
I80
sba(iDraughtCEMadmin
Player
p457
(dp458
g11
S'tournament rating'
p459
sg13
(lp460
I1
aI1
aI2
aI0
aI1
aI2
aI2
aI1
aI1
aI1
aI2
aI1
aI1
aI1
aI1
aI1
aI2
aI1
aI1
aI1
aI0
aI0
aI2
aI1
aI1
aI1
aI2
aI0
aI1
aI1
aI1
aI1
aI1
aI1
aI1
aI1
aI0
aI1
aI0
aI1
aI0
aI2
aI1
aI0
aI0
aI1
aI1
aI2
aI2
aI1
aI1
aI1
aI1
aI0
aI1
aI0
aI2
aI1
aI0
aI1
aI0
aI1
aI1
aI1
aI1
aI1
aI1
aI1
asg15
(lp461
I1
aI1
aI2
aI0
aI1
aI2
aI2
aI1
aI1
aI1
aI2
aI1
aI1
aI1
aI1
aI1
aI2
aI1
aI1
aI1
aI0
aI0
aI2
aI1
aI1
aI1
aI2
aI0
aI1
aI1
aI1
aI1
aI1
aI1
aI1
aI1
aI0
aI1
aI0
aI1
aI0
aI2
aI1
aI0
aI0
aI1
aI1
aI2
aI2
aI1
aI1
aI1
aI1
aI0
aI1
aI0
aI2
aI1
aI0
aI1
aI0
aI1
aI1
aI1
aI1
aI1
aI1
aI1
asg17
I00
sg18
F0.97058823529411764
sg19
F-0.50632035892319893
sg20
I342
sg21
I0
sg22
(lp462
I73
aI44
aI7
aI58
aI72
asg24
I66
sg25
I5
sg26
(lp463
I55
aI8
aI91
aI74
aI86
aI4
aI28
aI88
aI10
aI68
aI35
aI55
aI99
aI68
aI72
aI44
aI60
aI50
aI31
aI61
aI0
aI83
aI71
aI53
aI3
aI61
aI22
aI17
aI14
aI58
aI61
aI55
aI63
aI38
aI23
aI74
aI53
aI88
aI13
aI22
aI60
aI73
aI68
aI66
aI14
aI94
aI64
aI60
aI82
aI82
aI82
aI36
aI7
aI47
aI59
aI58
aI38
aI20
aI6
aI16
aI47
aI48
aI48
aI73
aI44
aI7
aI58
aI72
asg28
(lp464
I69
aI70
aI70
aI71
aI70
aI65
aI72
aI70
aI66
aI64
aI73
aI70
aI68
aI65
aI66
asg30
F0.98534208397923095
sg31
I345
sg32
F1031.3194536767514
sg33
F1025.7200869070602
sg34
I205
sbag111
a(iDraughtCEMadmin
Player
p465
(dp466
g11
g459
sg13
(lp467
I0
aI0
aI2
aI1
aI0
aI1
aI2
aI1
aI0
aI0
aI2
aI2
aI1
aI1
aI2
aI1
aI1
aI1
aI1
aI1
aI2
aI1
aI0
aI1
aI1
aI1
aI1
aI2
aI0
aI2
aI1
aI1
aI1
aI1
aI1
aI0
aI0
aI2
aI0
aI2
aI2
aI1
aI0
aI0
aI2
aI0
aI1
aI1
aI2
aI1
aI1
aI0
aI1
aI1
aI1
aI1
aI1
aI2
aI1
aI1
aI0
aI0
aI2
aI1
aI1
aI1
aI1
aI2
asg15
(lp468
I0
aI0
aI2
aI1
aI0
aI1
aI2
aI1
aI0
aI0
aI2
aI2
aI1
aI1
aI2
aI1
aI1
aI1
aI1
aI1
aI2
aI1
aI0
aI1
aI1
aI1
aI1
aI2
aI0
aI2
aI1
aI1
aI1
aI1
aI1
aI0
aI0
aI2
aI0
aI2
aI2
aI1
aI0
aI0
aI2
aI0
aI1
aI1
aI2
aI1
aI1
aI0
aI1
aI1
aI1
aI1
aI1
aI2
aI1
aI1
aI0
aI0
aI2
aI1
aI1
aI1
aI1
aI2
asg17
I00
sg18
F1.0
sg19
F0.51795519828103809
sg20
I342
sg21
I0
sg22
(lp469
I44
aI77
aI5
aI57
aI15
asg24
I68
sg25
I7
sg26
(lp470
I57
aI2
aI65
aI28
aI79
aI91
aI74
aI71
aI86
aI29
aI54
aI81
aI58
aI30
aI66
aI8
aI39
aI9
aI6
aI36
aI77
aI41
aI87
aI92
aI27
aI75
aI86
aI57
aI25
aI92
aI88
aI75
aI80
aI20
aI68
aI55
aI52
aI40
aI94
aI68
aI89
aI38
aI13
aI60
aI13
aI80
aI73
aI23
aI6
aI20
aI36
aI5
aI82
aI47
aI16
aI55
aI27
aI36
aI47
aI44
aI77
aI5
aI57
aI72
aI32
aI33
aI33
aI15
asg28
(lp471
I69
aI70
aI70
aI70
aI71
aI64
aI70
aI72
aI65
aI66
aI70
aI73
aI66
aI66
aI67
asg30
F0.98734134548728991
sg31
I198
sg32
F1028.7754712127798
sg33
F1024.8951244282505
sg34
I205
sba(iDraughtCEMadmin
Player
p472
(dp473
g11
g429
sg13
(lp474
I0
aI1
aI1
aI2
aI1
aI1
aI2
aI2
aI0
aI0
aI2
aI1
aI1
aI1
aI0
aI0
aI1
aI0
aI1
aI1
aI0
aI1
aI2
aI1
aI1
aI1
aI0
aI1
aI1
aI0
aI1
aI0
aI0
aI1
aI0
aI2
asg15
(lp475
I0
aI1
aI1
aI2
aI1
aI1
aI2
aI2
aI0
aI0
aI2
aI1
aI1
aI1
aI0
aI0
aI1
aI0
aI1
aI1
aI0
aI1
aI2
aI1
aI1
aI1
aI0
aI1
aI1
aI0
aI1
aI0
aI0
aI1
aI0
aI2
asg17
I00
sg18
F0.83333333333333337
sg19
F-0.93983138186520143
sg20
I200
sg21
I0
sg22
(lp476
I59
aI17
aI76
aI51
aI26
aI29
asg24
I30
sg25
I8
sg26
(lp477
I58
aI5
aI76
aI44
aI3
aI99
aI34
aI52
aI41
aI11
aI93
aI10
aI34
aI12
aI96
aI94
aI7
aI31
aI71
aI16
aI0
aI95
aI49
aI83
aI61
aI61
aI74
aI34
aI76
aI93
aI59
aI17
aI76
aI51
aI26
aI29
asg28
(lp478
I33
aI33
aI35
aI34
aI36
aI29
aI35
aI37
aI30
aI28
aI35
aI38
aI30
aI29
aI32
aI37
aI39
aI30
aI31
aI32
aI31
asg30
F0.85934292765399189
sg31
I194
sg32
F989.00620805804328
sg33
F938.87094049483005
sg34
I133
sbag214
a(iDraughtCEMadmin
Player
p479
(dp480
g11
g429
sg13
(lp481
I2
aI2
aI0
aI2
aI2
aI1
aI1
aI0
aI1
aI1
aI0
aI1
aI1
aI1
aI1
aI1
aI0
aI1
aI1
aI2
aI0
aI0
aI2
aI1
aI1
aI0
aI0
aI1
aI1
aI1
aI1
aI1
aI1
aI1
aI1
aI0
aI1
aI2
aI0
aI1
aI1
aI1
aI0
aI2
aI1
aI1
aI0
aI0
asg15
(lp482
I2
aI2
aI0
aI2
aI2
aI1
aI1
aI0
aI1
aI1
aI0
aI1
aI1
aI1
aI1
aI1
aI0
aI1
aI1
aI2
aI0
aI0
aI2
aI1
aI1
aI0
aI0
aI1
aI1
aI1
aI1
aI1
aI1
aI1
aI1
aI0
aI1
aI2
aI0
aI1
aI1
aI1
aI0
aI2
aI1
aI1
aI0
aI0
asg17
I00
sg18
F0.89583333333333337
sg19
F-0.92252494754225156
sg20
I282
sg21
I0
sg22
(lp483
I14
aI71
aI22
aI74
aI37
aI86
asg24
I43
sg25
I10
sg26
(lp484
I60
aI63
aI9
aI99
aI78
aI13
aI14
aI76
aI99
aI5
aI38
aI8
aI19
aI90
aI3
aI55
aI27
aI23
aI3
aI41
aI12
aI88
aI20
aI12
aI80
aI57
aI77
aI61
aI36
aI13
aI52
aI52
aI83
aI0
aI0
aI89
aI89
aI37
aI37
aI59
aI49
aI14
aI71
aI22
aI74
aI37
aI87
aI86
asg28
(lp485
I47
aI47
aI46
aI47
aI47
aI42
aI47
aI48
aI44
aI44
aI48
aI50
aI45
aI45
aI41
aI49
aI50
aI47
aI47
aI42
aI47
asg30
F0.92103210736571572
sg31
I423
sg32
F1011.2342297057238
sg33
F982.81820423360421
sg34
I191
sbag134
a(iDraughtCEMadmin
Player
p486
(dp487
g11
g429
sg13
(lp488
I1
aI1
aI0
aI0
aI1
aI1
aI1
aI0
aI1
aI0
aI1
aI0
aI2
aI1
aI1
aI0
aI1
aI1
aI1
aI2
aI2
aI2
aI0
aI1
aI0
aI1
aI2
aI1
aI2
aI0
asg15
(lp489
I1
aI1
aI0
aI0
aI1
aI1
aI1
aI0
aI1
aI0
aI1
aI0
aI2
aI1
aI1
aI0
aI1
aI1
aI1
aI2
aI2
aI2
aI0
aI1
aI0
aI1
aI2
aI1
aI2
aI0
asg17
I00
sg18
F0.90000000000000002
sg19
F1.9942289365635362
sg20
I175
sg21
I0
sg22
(lp490
I71
aI99
aI84
aI10
aI69
aI37
asg24
I27
sg25
I12
sg26
(lp491
I62
aI19
aI85
aI59
aI44
aI52
aI80
aI80
aI44
aI48
aI4
aI34
aI26
aI8
aI42
aI76
aI65
aI54
aI87
aI86
aI98
aI29
aI10
aI51
aI71
aI99
aI84
aI10
aI69
aI37
asg28
(lp492
I28
aI29
aI29
aI29
aI30
aI22
aI31
aI31
aI22
aI26
aI32
aI31
aI23
aI27
aI25
aI34
aI33
aI24
aI28
aI27
aI29
asg30
F0.84272987889025708
sg31
I123
sg32
F969.47497840978758
sg33
F916.37066798071578
sg34
I119
sba(iDraughtCEMadmin
Player
p493
(dp494
g11
g429
sg13
(lp495
I1
aI1
aI2
aI2
aI2
aI1
aI1
aI1
aI1
aI1
aI0
aI1
aI0
aI2
aI1
aI1
aI1
aI1
aI2
aI1
aI0
aI1
aI1
aI1
aI2
aI1
aI1
aI0
aI1
aI2
aI0
aI0
aI0
aI1
aI1
aI0
aI0
aI1
aI0
aI1
aI1
aI2
aI2
aI1
aI1
aI1
aI1
aI1
asg15
(lp496
I1
aI1
aI2
aI2
aI2
aI1
aI1
aI1
aI1
aI1
aI0
aI1
aI0
aI2
aI1
aI1
aI1
aI1
aI2
aI1
aI0
aI1
aI1
aI1
aI2
aI1
aI1
aI0
aI1
aI2
aI0
aI0
aI0
aI1
aI1
aI0
aI0
aI1
aI0
aI1
aI1
aI2
aI2
aI1
aI1
aI1
aI1
aI1
asg17
I00
sg18
F0.97916666666666663
sg19
F-0.075319384989109048
sg20
I285
sg21
I0
sg22
(lp497
I79
aI27
aI35
aI5
aI16
aI7
asg24
I47
sg25
I13
sg26
(lp498
I63
aI21
aI69
aI50
aI10
aI70
aI82
aI32
aI50
aI98
aI18
aI71
aI22
aI22
aI58
aI82
aI98
aI15
aI40
aI99
aI26
aI19
aI76
aI96
aI72
aI47
aI77
aI55
aI29
aI40
aI86
aI58
aI73
aI60
aI10
aI37
aI37
aI52
aI83
aI36
aI0
aI79
aI27
aI35
aI5
aI7
aI16
aI7
asg28
(lp499
I46
aI46
aI48
aI47
aI48
aI44
aI47
aI49
aI44
aI45
aI47
aI50
aI45
aI46
aI46
aI48
aI51
aI45
aI48
aI46
aI47
asg30
F0.98193226828264868
sg31
I424
sg32
F1006.9688385510916
sg33
F1000.6154630159937
sg34
I190
sba(iDraughtCEMadmin
Player
p500
(dp501
g11
g459
sg13
(lp502
I1
aI0
aI2
aI1
aI0
aI2
aI1
aI1
aI1
aI1
aI2
aI2
aI0
aI1
aI2
aI1
aI0
aI1
aI1
aI1
aI1
aI1
aI2
aI1
aI0
aI2
aI0
aI1
aI1
aI1
aI2
aI2
aI1
aI1
aI1
aI2
aI1
aI1
aI1
aI1
aI1
aI0
aI2
aI0
aI0
aI0
aI1
aI1
aI0
aI2
aI1
aI1
aI1
aI0
aI1
aI2
aI1
aI2
aI0
aI0
aI0
aI1
aI1
aI1
aI1
aI2
aI2
aI2
aI0
aI0
aI2
aI1
aI1
asg15
(lp503
I1
aI0
aI2
aI1
aI0
aI2
aI1
aI1
aI1
aI1
aI2
aI2
aI0
aI1
aI2
aI1
aI0
aI1
aI1
aI1
aI1
aI1
aI2
aI1
aI0
aI2
aI0
aI1
aI1
aI1
aI2
aI2
aI1
aI1
aI1
aI2
aI1
aI1
aI1
aI1
aI1
aI0
aI2
aI0
aI0
aI0
aI1
aI1
aI0
aI2
aI1
aI1
aI1
aI0
aI1
aI2
aI1
aI2
aI0
aI0
aI0
aI1
aI1
aI1
aI1
aI2
aI2
aI2
aI0
aI0
aI2
aI1
aI1
asg17
I00
sg18
F1.0136986301369864
sg19
F0.53969426198814296
sg20
I385
sg21
I0
sg22
(lp504
I50
aI20
aI32
aI1
aI86
asg24
I74
sg25
I14
sg26
(lp505
I64
aI28
aI95
aI82
aI0
aI2
aI10
aI42
aI87
aI71
aI2
aI57
aI59
aI34
aI33
aI40
aI80
aI2
aI18
aI91
aI55
aI33
aI38
aI70
aI76
aI92
aI3
aI40
aI17
aI16
aI85
aI76
aI97
aI5
aI17
aI33
aI39
aI82
aI27
aI79
aI58
aI97
aI10
aI59
aI67
aI55
aI72
aI1
aI41
aI31
aI1
aI66
aI5
aI28
aI88
aI15
aI23
aI79
aI94
aI28
aI15
aI58
aI16
aI17
aI6
aI32
aI15
aI86
aI50
aI20
aI32
aI1
aI86
asg28
(lp506
I79
aI80
aI80
aI81
aI81
aI70
aI82
aI82
aI71
aI72
aI82
aI84
aI72
aI73
aI74
asg30
F1.0002066782508421
sg31
I299
sg32
F1029.9788041962204
sg33
F1030.5903058383271
sg34
I231
sba(iDraughtCEMadmin
Player
p507
(dp508
g11
g437
sg13
(lp509
I2
aI0
aI1
aI1
aI1
aI1
aI1
aI2
aI1
aI1
aI1
aI1
aI1
aI1
aI1
aI2
aI1
aI2
aI1
aI1
aI2
aI1
aI1
aI2
aI1
aI2
aI1
aI0
aI1
aI1
aI2
aI1
aI0
aI0
aI0
aI1
aI1
aI1
aI1
aI1
aI0
aI1
aI1
aI0
aI0
aI1
aI1
aI0
aI1
aI1
aI1
aI2
aI0
aI2
aI1
aI0
aI1
aI1
aI1
aI2
aI2
aI2
aI2
aI1
aI0
aI0
aI0
aI0
aI2
aI0
aI1
aI1
aI1
aI2
aI0
aI2
aI0
aI2
aI1
aI1
aI1
aI2
aI1
asg15
(lp510
I2
aI0
aI1
aI1
aI1
aI1
aI1
aI2
aI1
aI1
aI1
aI1
aI1
aI1
aI1
aI2
aI1
aI2
aI1
aI1
aI2
aI1
aI1
aI2
aI1
aI2
aI1
aI0
aI1
aI1
aI2
aI1
aI0
aI0
aI0
aI1
aI1
aI1
aI1
aI1
aI0
aI1
aI1
aI0
aI0
aI1
aI1
aI0
aI1
aI1
aI1
aI2
aI0
aI2
aI1
aI0
aI1
aI1
aI1
aI2
aI2
aI2
aI2
aI1
aI0
aI0
aI0
aI0
aI2
aI0
aI1
aI1
aI1
aI2
aI0
aI2
aI0
aI2
aI1
aI1
aI1
aI2
aI1
asg17
I00
sg18
F1.0120481927710843
sg19
F0.51573817737676109
sg20
I429
sg21
I0
sg22
(lp511
I77
aI77
aI58
aI1
aI38
asg24
I84
sg25
I15
sg26
(lp512
I65
aI64
aI68
aI71
aI59
aI37
aI22
aI44
aI24
aI80
aI64
aI42
aI81
aI89
aI38
aI67
aI51
aI30
aI13
aI97
aI28
aI37
aI37
aI20
aI92
aI6
aI11
aI41
aI64
aI44
aI17
aI60
aI0
aI2
aI67
aI38
aI88
aI3
aI99
aI23
aI44
aI44
aI39
aI79
aI20
aI96
aI14
aI36
aI36
aI36
aI16
aI47
aI47
aI35
aI73
aI96
aI14
aI99
aI28
aI27
aI14
aI33
aI57
aI7
aI31
aI88
aI64
aI33
aI72
aI67
aI88
aI64
aI38
aI86
aI32
aI1
aI32
aI77
aI77
aI58
aI1
aI96
aI38
asg28
(lp513
I87
aI88
aI88
aI89
aI89
aI80
aI90
aI90
aI81
aI80
aI91
aI91
aI81
aI82
aI84
asg30
F0.99639896885092794
sg31
I611
sg32
F1037.7038432898203
sg33
F1036.9684496934294
sg34
I258
sba(iDraughtCEMadmin
Player
p514
(dp515
g11
g459
sg13
(lp516
I1
aI0
aI1
aI1
aI1
aI1
aI1
aI2
aI1
aI2
aI1
aI2
aI1
aI2
aI2
aI1
aI1
aI0
aI1
aI1
aI1
aI0
aI1
aI1
aI1
aI2
aI0
aI0
aI1
aI1
aI0
aI1
aI2
aI1
aI1
aI0
aI2
aI1
aI0
aI1
aI1
aI1
aI1
aI0
aI1
aI1
aI1
aI0
aI1
aI0
aI1
aI2
aI2
aI2
aI1
aI1
aI0
aI0
aI1
aI1
aI2
aI1
aI1
asg15
(lp517
I1
aI0
aI1
aI1
aI1
aI1
aI1
aI2
aI1
aI2
aI1
aI2
aI1
aI2
aI2
aI1
aI1
aI0
aI1
aI1
aI1
aI0
aI1
aI1
aI1
aI2
aI0
aI0
aI1
aI1
aI0
aI1
aI2
aI1
aI1
aI0
aI2
aI1
aI0
aI1
aI1
aI1
aI1
aI0
aI1
aI1
aI1
aI0
aI1
aI0
aI1
aI2
aI2
aI2
aI1
aI1
aI0
aI0
aI1
aI1
aI2
aI1
aI1
asg17
I00
sg18
F0.98412698412698407
sg19
F0.23653384649504688
sg20
I318
sg21
I0
sg22
(lp518
I2
aI55
aI5
aI23
aI14
asg24
I62
sg25
I16
sg26
(lp519
I66
aI32
aI51
aI83
aI61
aI31
aI27
aI49
aI0
aI83
aI77
aI51
aI24
aI70
aI72
aI92
aI30
aI8
aI58
aI20
aI40
aI41
aI65
aI34
aI61
aI2
aI14
aI53
aI20
aI96
aI72
aI38
aI32
aI64
aI31
aI40
aI74
aI75
aI31
aI97
aI87
aI60
aI13
aI67
aI55
aI59
aI89
aI59
aI59
aI39
aI77
aI80
aI38
aI66
aI36
aI15
aI82
aI7
aI2
aI55
aI5
aI23
aI14
asg28
(lp520
I63
aI64
aI65
aI64
aI66
aI59
aI65
aI66
aI60
aI62
aI66
aI66
aI61
aI63
aI62
asg30
F0.97745550146639903
sg31
I252
sg32
F1023.095981754046
sg33
F1015.4984271355906
sg34
I193
sba(iDraughtCEMadmin
Player
p521
(dp522
g11
g437
sg13
(lp523
I0
aI0
aI1
aI0
aI2
aI2
aI1
aI1
aI1
aI0
aI1
aI1
aI1
aI2
aI2
aI0
aI0
aI2
aI1
aI1
aI1
aI2
aI2
aI1
aI0
aI1
aI2
aI1
aI1
aI1
aI2
aI2
aI1
aI1
aI1
aI1
aI2
aI2
aI1
aI1
aI0
aI1
aI1
aI2
aI0
aI1
aI1
aI1
aI1
aI2
aI1
aI1
aI2
aI0
aI1
aI0
aI0
aI2
aI1
aI1
aI2
aI1
aI1
aI1
aI0
aI1
aI1
aI2
aI0
aI2
aI1
aI0
aI2
aI1
aI0
aI1
aI1
aI0
aI1
aI0
aI0
aI2
aI1
aI1
aI1
aI2
aI1
aI2
aI2
aI1
aI0
aI1
aI1
aI2
aI1
aI1
aI2
aI1
aI1
aI0
aI1
aI1
aI1
aI1
aI1
aI1
aI1
aI1
aI1
aI1
aI1
aI1
aI1
asg15
(lp524
I0
aI0
aI1
aI0
aI2
aI2
aI1
aI1
aI1
aI0
aI1
aI1
aI1
aI2
aI2
aI0
aI0
aI2
aI1
aI1
aI1
aI2
aI2
aI1
aI0
aI1
aI2
aI1
aI1
aI1
aI2
aI2
aI1
aI1
aI1
aI1
aI2
aI2
aI1
aI1
aI0
aI1
aI1
aI2
aI0
aI1
aI1
aI1
aI1
aI2
aI1
aI1
aI2
aI0
aI1
aI0
aI0
aI2
aI1
aI1
aI2
aI1
aI1
aI1
aI0
aI1
aI1
aI2
aI0
aI2
aI1
aI0
aI2
aI1
aI0
aI1
aI1
aI0
aI1
aI0
aI0
aI2
aI1
aI1
aI1
aI2
aI1
aI2
aI2
aI1
aI0
aI1
aI1
aI2
aI1
aI1
aI2
aI1
aI1
aI0
aI1
aI1
aI1
aI1
aI1
aI1
aI1
aI1
aI1
aI1
aI1
aI1
aI1
asg17
I00
sg18
F1.0442477876106195
sg19
F0.99726493131399829
sg20
I555
sg21
I0
sg22
(lp525
I99
aI99
aI11
aI73
aI71
asg24
I118
sg25
I17
sg26
(lp526
I67
aI11
aI54
aI47
aI43
aI45
aI55
aI88
aI25
aI96
aI42
aI19
aI72
aI29
aI87
aI39
aI81
aI63
aI1
aI89
aI73
aI60
aI2
aI84
aI80
aI60
aI59
aI14
aI38
aI58
aI8
aI5
aI99
aI14
aI15
aI83
aI49
aI73
aI41
aI44
aI59
aI22
aI96
aI32
aI28
aI80
aI22
aI82
aI44
aI96
aI86
aI60
aI99
aI44
aI1
aI9
aI97
aI2
aI27
aI77
aI73
aI6
aI14
aI62
aI6
aI2
aI41
aI58
aI28
aI6
aI2
aI71
aI72
aI62
aI30
aI41
aI73
aI97
aI3
aI44
aI66
aI27
aI99
aI99
aI96
aI6
aI79
aI9
aI3
aI41
aI6
aI6
aI71
aI3
aI92
aI97
aI88
aI30
aI92
aI92
aI66
aI11
aI9
aI20
aI20
aI11
aI9
aI50
aI99
aI99
aI11
aI73
aI71
asg28
(lp527
sg30
F1.0140192362345737
sg31
I324
sg32
F1044.8977550205948
sg33
F1050.7661206387688
sg34
I334
sba(iDraughtCEMadmin
Player
p528
(dp529
g11
g429
sg13
(lp530
I1
aI1
aI0
aI0
aI1
aI1
aI1
aI0
aI1
aI1
aI1
aI2
aI0
aI0
aI0
aI1
aI2
aI1
aI1
aI2
aI0
aI1
aI1
aI2
aI0
aI1
aI1
aI0
aI0
aI1
asg15
(lp531
I1
aI1
aI0
aI0
aI1
aI1
aI1
aI0
aI1
aI1
aI1
aI2
aI0
aI0
aI0
aI1
aI2
aI1
aI1
aI2
aI0
aI1
aI1
aI2
aI0
aI1
aI1
aI0
aI0
aI1
asg17
I00
sg18
F0.80000000000000004
sg19
F-0.32260067641004753
sg20
I169
sg21
I0
sg22
(lp532
I33
aI2
aI19
aI93
aI90
aI98
asg24
I24
sg25
I18
sg26
(lp533
I68
aI39
aI99
aI81
aI54
aI44
aI24
aI63
aI52
aI98
aI21
aI45
aI68
aI13
aI56
aI65
aI45
aI76
aI14
aI77
aI52
aI90
aI19
aI95
aI33
aI2
aI19
aI93
aI90
aI98
asg28
(lp534
I28
aI30
aI28
aI30
aI29
aI23
aI31
aI31
aI24
aI25
aI33
aI32
aI25
aI26
aI25
aI34
aI32
aI27
aI28
aI25
aI23
asg30
F0.80710812850022462
sg31
I114
sg32
F949.25811513123836
sg33
F881.06777121892878
sg34
I112
sba(iDraughtCEMadmin
Player
p535
(dp536
g11
g429
sg13
(lp537
I0
aI1
aI1
aI2
aI1
aI0
aI0
aI1
aI1
aI1
aI1
aI1
aI1
aI0
aI0
aI1
aI2
aI2
aI1
aI0
aI1
aI0
aI1
aI2
aI0
aI1
aI1
aI1
aI1
aI2
asg15
(lp538
I0
aI1
aI1
aI2
aI1
aI0
aI0
aI1
aI1
aI1
aI1
aI1
aI1
aI0
aI0
aI1
aI2
aI2
aI1
aI0
aI1
aI0
aI1
aI2
aI0
aI1
aI1
aI1
aI1
aI2
asg17
I00
sg18
F0.90000000000000002
sg19
F0.40603147644086451
sg20
I163
sg21
I0
sg22
(lp539
I13
aI26
aI18
aI65
aI34
aI95
asg24
I27
sg25
I19
sg26
(lp540
I69
aI12
aI63
aI91
aI55
aI88
aI93
aI38
aI75
aI42
aI48
aI17
aI10
aI23
aI83
aI81
aI91
aI78
aI22
aI97
aI95
aI48
aI18
aI90
aI13
aI26
aI18
aI65
aI34
aI95
asg28
(lp541
I28
aI29
aI28
aI30
aI28
aI23
aI30
aI29
aI23
aI24
aI31
aI30
aI23
aI25
aI25
aI33
aI30
aI24
aI26
aI25
aI25
asg30
F0.88760258578407492
sg31
I131
sg32
F954.24605264240643
sg33
F915.43551935443872
sg34
I107
sbag198
a(iDraughtCEMadmin
Player
p542
(dp543
g11
g429
sg13
(lp544
I0
aI1
aI2
aI0
aI2
aI0
aI0
aI1
aI1
aI0
aI1
aI0
aI0
aI1
aI1
aI2
aI1
aI0
aI0
aI2
aI0
aI0
aI2
aI2
asg15
(lp545
I0
aI1
aI2
aI0
aI2
aI0
aI0
aI1
aI1
aI0
aI1
aI0
aI0
aI1
aI1
aI2
aI1
aI0
aI0
aI2
aI0
aI0
aI2
aI2
asg17
I00
sg18
F0.79166666666666663
sg19
F0.80438116407625559
sg20
I124
sg21
I0
sg22
(lp546
I94
aI41
aI75
aI45
aI4
aI56
asg24
I19
sg25
I21
sg26
(lp547
I71
aI13
aI62
aI30
aI45
aI24
aI33
aI24
aI51
aI95
aI18
aI44
aI23
aI57
aI43
aI95
aI90
aI94
aI41
aI75
aI45
aI54
aI4
aI56
asg28
(lp548
I21
aI23
aI20
aI25
aI21
aI17
aI27
aI23
aI18
aI17
aI27
aI25
aI19
aI18
aI13
aI28
aI26
aI21
aI18
aI14
aI17
asg30
F0.76755678394722693
sg31
I96
sg32
F938.93506461322158
sg33
F857.47688413653532
sg34
I83
sba(iDraughtCEMadmin
Player
p549
(dp550
g11
g429
sg13
(lp551
I1
aI2
aI1
aI2
aI1
aI2
aI1
aI1
aI1
aI1
aI1
aI0
aI1
aI1
aI1
aI1
aI1
aI1
aI1
aI1
aI0
aI1
aI0
aI0
aI1
aI1
aI1
aI1
aI1
aI0
aI1
aI1
aI0
aI1
aI1
aI2
aI1
aI0
aI1
aI2
aI1
aI1
aI1
aI0
aI1
aI2
aI1
aI2
aI1
aI1
aI0
aI0
aI1
asg15
(lp552
I1
aI2
aI1
aI2
aI1
aI2
aI1
aI1
aI1
aI1
aI1
aI0
aI1
aI1
aI1
aI1
aI1
aI1
aI1
aI1
aI0
aI1
aI0
aI0
aI1
aI1
aI1
aI1
aI1
aI0
aI1
aI1
aI0
aI1
aI1
aI2
aI1
aI0
aI1
aI2
aI1
aI1
aI1
aI0
aI1
aI2
aI1
aI2
aI1
aI1
aI0
aI0
aI1
asg17
I00
sg18
F0.94339622641509435
sg19
F-0.65848930469213662
sg20
I267
sg21
I0
sg22
(lp553
I17
aI58
aI36
aI60
aI35
asg24
I50
sg25
I22
sg26
(lp554
I72
aI43
aI58
aI85
aI92
aI23
aI15
aI97
aI36
aI1
aI60
aI95
aI13
aI80
aI13
aI99
aI19
aI90
aI68
aI38
aI39
aI97
aI94
aI37
aI75
aI97
aI5
aI39
aI83
aI37
aI26
aI61
aI97
aI37
aI36
aI39
aI32
aI17
aI10
aI37
aI5
aI86
aI86
aI74
aI40
aI35
aI17
aI58
aI36
aI60
aI59
aI59
aI35
asg28
(lp555
I53
aI55
aI54
aI56
aI55
aI52
aI57
aI55
aI52
aI51
aI59
aI55
aI52
aI53
aI48
asg30
F0.96275462617083507
sg31
I375
sg32
F1016.1477012083778
sg33
F1002.5428549506071
sg34
I160
sba(iDraughtCEMadmin
Player
p556
(dp557
g11
g459
sg13
(lp558
I1
aI2
aI1
aI2
aI1
aI0
aI0
aI1
aI1
aI0
aI2
aI2
aI2
aI2
aI1
aI1
aI2
aI2
aI1
aI0
aI1
aI0
aI1
aI1
aI1
aI2
aI0
aI1
aI1
aI2
aI0
aI0
aI1
aI2
aI1
aI1
aI1
aI1
aI0
aI0
aI2
aI0
aI1
aI1
aI0
aI1
aI2
aI0
aI1
aI1
aI1
aI2
aI1
aI0
aI2
aI1
aI1
aI0
aI1
aI1
aI1
aI1
aI1
aI2
aI1
aI1
aI1
aI1
aI0
aI1
aI2
aI1
aI1
asg15
(lp559
I1
aI2
aI1
aI2
aI1
aI0
aI0
aI1
aI1
aI0
aI2
aI2
aI2
aI2
aI1
aI1
aI2
aI2
aI1
aI0
aI1
aI0
aI1
aI1
aI1
aI2
aI0
aI1
aI1
aI2
aI0
aI0
aI1
aI2
aI1
aI1
aI1
aI1
aI0
aI0
aI2
aI0
aI1
aI1
aI0
aI1
aI2
aI0
aI1
aI1
aI1
aI2
aI1
aI0
aI2
aI1
aI1
aI0
aI1
aI1
aI1
aI1
aI1
aI2
aI1
aI1
aI1
aI1
aI0
aI1
aI2
aI1
aI1
asg17
I00
sg18
F1.0136986301369864
sg19
F0.9010807015972887
sg20
I384
sg21
I0
sg22
(lp560
I85
aI11
aI33
aI86
aI1
asg24
I74
sg25
I23
sg26
(lp561
I73
aI46
aI48
aI61
aI49
aI22
aI2
aI67
aI83
aI53
aI45
aI30
aI21
aI19
aI1
aI35
aI99
aI20
aI62
aI10
aI28
aI53
aI68
aI96
aI24
aI0
aI6
aI64
aI2
aI28
aI75
aI36
aI47
aI40
aI77
aI99
aI37
aI70
aI80
aI31
aI5
aI71
aI41
aI20
aI2
aI15
aI33
aI72
aI31
aI96
aI79
aI7
aI66
aI41
aI55
aI79
aI14
aI66
aI41
aI41
aI79
aI16
aI33
aI41
aI67
aI61
aI86
aI1
aI85
aI11
aI33
aI86
aI1
asg28
(lp562
I78
aI79
aI78
aI81
aI79
aI70
aI82
aI80
aI71
aI73
aI82
aI82
aI73
aI74
aI73
asg30
F0.98980549358238668
sg31
I540
sg32
F1030.9822195608187
sg33
F1028.3412432464431
sg34
I232
sba(iDraughtCEMadmin
Player
p563
(dp564
g11
g429
sg13
(lp565
I1
aI1
aI1
aI1
aI1
aI2
aI1
aI1
aI1
aI0
aI1
aI0
aI0
aI0
aI2
aI1
aI2
aI2
aI0
aI1
aI1
aI1
aI1
aI0
aI1
aI0
aI0
aI1
aI1
aI1
aI1
aI1
aI1
aI1
aI1
aI2
asg15
(lp566
I1
aI1
aI1
aI1
aI1
aI2
aI1
aI1
aI1
aI0
aI1
aI0
aI0
aI0
aI2
aI1
aI2
aI2
aI0
aI1
aI1
aI1
aI1
aI0
aI1
aI0
aI0
aI1
aI1
aI1
aI1
aI1
aI1
aI1
aI1
aI2
asg17
I00
sg18
F0.91666666666666663
sg19
F0.22507395579001468
sg20
I200
sg21
I0
sg22
(lp567
I47
aI38
aI25
aI76
aI29
aI93
asg24
I33
sg25
I24
sg26
(lp568
I51
aI3
aI38
aI21
aI18
aI21
aI15
aI40
aI94
aI37
aI88
aI16
aI75
aI83
aI34
aI30
aI85
aI80
aI73
aI36
aI55
aI23
aI53
aI76
aI90
aI65
aI47
aI38
aI25
aI76
aI74
aI74
aI29
aI29
aI29
aI93
asg28
(lp569
I33
aI34
aI34
aI35
aI34
aI30
aI35
aI35
aI32
aI30
aI37
aI36
aI33
aI30
aI31
aI37
aI38
aI33
aI30
aI31
aI31
asg30
F0.91056259786803018
sg31
I231
sg32
F985.23510905456374
sg33
F954.30319345245357
sg34
I132
sba(iDraughtCEMadmin
Player
p570
(dp571
g11
g429
sg13
(lp572
I1
aI2
aI0
aI0
aI1
aI1
aI1
aI1
aI1
aI1
aI1
aI0
aI1
aI1
aI1
aI0
aI0
aI2
aI1
aI1
aI2
aI1
aI1
aI1
aI1
aI1
aI2
aI1
aI2
aI0
aI0
aI0
aI1
aI2
aI1
aI0
asg15
(lp573
I1
aI2
aI0
aI0
aI1
aI1
aI1
aI1
aI1
aI1
aI1
aI0
aI1
aI1
aI1
aI0
aI0
aI2
aI1
aI1
aI2
aI1
aI1
aI1
aI1
aI1
aI2
aI1
aI2
aI0
aI0
aI0
aI1
aI2
aI1
aI0
asg17
I00
sg18
F0.91666666666666663
sg19
F0.19089858321810882
sg20
I215
sg21
I0
sg22
(lp574
I68
aI1
aI24
aI26
aI89
aI74
asg24
I33
sg25
I25
sg26
(lp575
I36
aI6
aI51
aI60
aI30
aI97
aI17
aI82
aI95
aI61
aI38
aI38
aI44
aI30
aI86
aI54
aI75
aI43
aI37
aI35
aI90
aI89
aI30
aI0
aI96
aI66
aI36
aI60
aI55
aI7
aI68
aI1
aI24
aI26
aI89
aI74
asg28
(lp576
I36
aI37
aI37
aI37
aI38
aI29
aI38
aI38
aI30
aI30
aI39
aI39
aI31
aI32
aI33
aI41
aI39
aI33
aI32
aI35
aI35
asg30
F0.91153846146276651
sg31
I189
sg32
F993.66563448567058
sg33
F963.04129723670758
sg34
I145
sba(iDraughtCEMadmin
Player
p577
(dp578
g11
g429
sg13
(lp579
I1
aI1
aI1
aI2
aI1
aI1
aI1
aI1
aI0
aI0
aI2
aI2
aI0
aI0
aI2
aI1
aI2
aI2
aI1
aI0
aI1
aI2
aI1
aI1
aI1
aI1
aI0
aI1
aI1
aI0
aI0
aI0
aI0
aI0
aI2
aI0
aI1
aI1
aI1
aI1
aI1
aI2
asg15
(lp580
I1
aI1
aI1
aI2
aI1
aI1
aI1
aI1
aI0
aI0
aI2
aI2
aI0
aI0
aI2
aI1
aI2
aI2
aI1
aI0
aI1
aI2
aI1
aI1
aI1
aI1
aI0
aI1
aI1
aI0
aI0
aI0
aI0
aI0
aI2
aI0
aI1
aI1
aI1
aI1
aI1
aI2
asg17
I00
sg18
F0.9285714285714286
sg19
F-0.077066510159613702
sg20
I240
sg21
I0
sg22
(lp581
I33
aI38
aI89
aI70
aI59
aI52
asg24
I39
sg25
I26
sg26
(lp582
I56
aI73
aI68
aI64
aI89
aI91
aI51
aI20
aI81
aI94
aI12
aI32
aI98
aI31
aI0
aI89
aI48
aI59
aI37
aI11
aI13
aI98
aI19
aI28
aI44
aI38
aI59
aI6
aI11
aI49
aI25
aI76
aI76
aI76
aI8
aI22
aI33
aI38
aI89
aI70
aI59
aI52
asg28
(lp583
I39
aI40
aI40
aI40
aI42
aI36
aI41
aI42
aI37
aI35
aI42
aI43
aI38
aI35
aI38
aI43
aI44
aI40
aI35
aI40
aI38
asg30
F0.93261326580350357
sg31
I275
sg32
F995.4398154789194
sg33
F971.91466407035591
sg34
I161
sba(iDraughtCEMadmin
Player
p584
(dp585
g11
S'tournament rating'
p586
sg13
(lp587
I1
aI1
aI1
aI1
aI2
aI1
aI1
aI2
aI1
aI1
aI1
aI0
aI1
aI2
aI2
aI1
aI2
aI2
aI1
aI2
aI1
aI2
aI1
aI0
aI0
aI1
aI1
aI1
aI0
aI2
aI1
aI1
aI1
aI1
aI0
aI1
aI1
aI1
aI1
aI0
aI2
aI1
aI1
aI1
aI0
aI1
aI1
aI1
aI1
aI2
aI2
aI1
aI0
aI1
aI1
aI2
aI1
aI0
aI2
aI1
aI0
aI1
aI1
aI0
aI0
aI2
aI1
aI1
aI2
aI1
aI1
aI0
aI0
aI2
aI1
aI1
aI2
aI1
aI2
aI0
aI1
aI0
aI1
aI1
aI1
aI1
aI2
aI0
aI0
aI1
aI1
aI1
aI1
aI0
aI1
aI2
aI1
aI1
aI1
aI2
aI1
aI2
aI1
aI1
aI1
aI1
aI2
aI1
aI1
aI1
aI2
aI1
aI0
aI1
aI1
aI0
aI1
aI2
aI1
aI0
aI0
aI0
aI2
aI0
aI1
aI0
aI0
aI1
aI2
aI1
aI2
aI0
aI1
aI0
aI1
aI1
aI2
aI1
asg15
(lp588
I1
aI1
aI1
aI1
aI2
aI1
aI1
aI2
aI1
aI1
aI1
aI0
aI1
aI2
aI2
aI1
aI2
aI2
aI1
aI2
aI1
aI2
aI1
aI0
aI0
aI1
aI1
aI1
aI0
aI2
aI1
aI1
aI1
aI1
aI0
aI1
aI1
aI1
aI1
aI0
aI2
aI1
aI1
aI1
aI0
aI1
aI1
aI1
aI1
aI2
aI2
aI1
aI0
aI1
aI1
aI2
aI1
aI0
aI2
aI1
aI0
aI1
aI1
aI0
aI0
aI2
aI1
aI1
aI2
aI1
aI1
aI0
aI0
aI2
aI1
aI1
aI2
aI1
aI2
aI0
aI1
aI0
aI1
aI1
aI1
aI1
aI2
aI0
aI0
aI1
aI1
aI1
aI1
aI0
aI1
aI2
aI1
aI1
aI1
aI2
aI1
aI2
aI1
aI1
aI1
aI1
aI2
aI1
aI1
aI1
aI2
aI1
aI0
aI1
aI1
aI0
aI1
aI2
aI1
aI0
aI0
aI0
aI2
aI0
aI1
aI0
aI0
aI1
aI2
aI1
aI2
aI0
aI1
aI0
aI1
aI1
aI2
aI1
asg17
I00
sg18
F1.0072463768115942
sg19
F-0.068124717718455949
sg20
I544
sg21
I0
sg22
(lp589
I11
aI77
aI88
aI73
aI30
asg24
I139
sg25
I27
sg26
(lp590
I77
aI59
aI79
aI0
aI78
aI16
aI54
aI77
aI88
aI89
aI48
aI54
aI38
aI1
aI11
aI70
aI10
aI89
aI88
aI85
aI20
aI2
aI7
aI97
aI6
aI53
aI80
aI52
aI75
aI3
aI32
aI28
aI52
aI52
aI14
aI41
aI96
aI39
aI13
aI44
aI77
aI55
aI89
aI92
aI55
aI59
aI59
aI67
aI41
aI44
aI97
aI7
aI17
aI77
aI97
aI15
aI71
aI55
aI28
aI79
aI71
aI41
aI63
aI53
aI96
aI6
aI79
aI3
aI94
aI79
aI44
aI17
aI92
aI85
aI38
aI67
aI55
aI85
aI31
aI66
aI2
aI32
aI41
aI41
aI2
aI66
aI66
aI77
aI3
aI32
aI88
aI11
aI99
aI77
aI9
aI71
aI11
aI63
aI63
aI9
aI11
aI97
aI80
aI92
aI71
aI73
aI9
aI3
aI92
aI6
aI71
aI73
aI71
aI67
aI9
aI9
aI9
aI50
aI67
aI41
aI44
aI73
aI9
aI88
aI53
aI11
aI88
aI31
aI31
aI73
aI30
aI30
aI73
aI11
aI77
aI88
aI73
aI30
asg28
(lp591
sg30
F1.00870642176074
sg31
I652
sg32
F1059.0202629811477
sg33
F1061.9771354406137
sg34
I327
sbag95
a(iDraughtCEMadmin
Player
p592
(dp593
g11
g429
sg13
(lp594
I1
aI1
aI1
aI1
aI0
aI1
aI1
aI1
aI0
aI2
aI1
aI1
aI1
aI1
aI0
aI2
aI1
aI0
aI0
aI0
aI2
aI0
aI1
aI0
aI1
aI1
aI0
aI2
aI1
aI1
aI0
aI2
aI2
aI1
aI1
aI0
asg15
(lp595
I1
aI1
aI1
aI1
aI0
aI1
aI1
aI1
aI0
aI2
aI1
aI1
aI1
aI1
aI0
aI2
aI1
aI0
aI0
aI0
aI2
aI0
aI1
aI0
aI1
aI1
aI0
aI2
aI1
aI1
aI0
aI2
aI2
aI1
aI1
aI0
asg17
I00
sg18
F0.86111111111111116
sg19
F0.43923315922435224
sg20
I200
sg21
I0
sg22
(lp596
I28
aI13
aI51
aI93
aI24
aI8
asg24
I31
sg25
I29
sg26
(lp597
I79
aI60
aI90
aI71
aI50
aI93
aI2
aI7
aI59
aI55
aI99
aI97
aI17
aI90
aI30
aI62
aI80
aI50
aI12
aI91
aI75
aI41
aI35
aI93
aI98
aI51
aI51
aI28
aI13
aI51
aI93
aI24
aI24
aI24
aI76
aI8
asg28
(lp598
I34
aI35
aI33
aI36
aI33
aI27
aI38
aI34
aI28
aI30
aI39
aI35
aI29
aI31
aI31
aI40
aI35
aI31
aI31
aI33
aI30
asg30
F0.84690802226597306
sg31
I167
sg32
F987.98951563810419
sg33
F934.81766720508506
sg34
I133
sba(iDraughtCEMadmin
Player
p599
(dp600
g11
g586
sg13
(lp601
I2
aI1
aI0
aI2
aI1
aI1
aI1
aI1
aI0
aI1
aI1
aI0
aI0
aI2
aI0
aI2
aI1
aI0
aI1
aI1
aI1
aI1
aI1
aI0
aI1
aI1
aI1
aI1
aI0
aI2
aI1
aI1
aI2
aI2
aI1
aI1
aI1
aI2
aI1
aI2
aI2
aI1
aI0
aI1
aI1
aI1
aI2
aI1
aI2
aI2
aI0
aI1
aI2
aI0
aI1
aI2
aI0
aI1
aI2
aI1
aI1
aI1
aI2
aI2
aI2
aI0
aI2
aI0
aI1
aI0
aI0
aI1
aI1
aI1
aI1
aI1
aI1
aI2
aI0
aI2
aI1
aI2
aI1
aI2
aI1
aI0
aI1
aI1
aI1
aI1
aI1
aI1
aI0
aI1
aI2
aI2
aI0
aI1
aI1
aI1
aI1
aI2
aI2
aI0
aI2
aI1
aI0
aI2
aI1
aI1
aI0
aI1
aI1
aI1
aI1
aI1
aI1
aI0
aI1
aI0
aI2
aI0
aI1
aI1
aI1
aI0
aI1
aI1
aI1
aI1
aI1
aI0
aI0
aI1
aI0
aI1
aI0
aI1
asg15
(lp602
I2
aI1
aI0
aI2
aI1
aI1
aI1
aI1
aI0
aI1
aI1
aI0
aI0
aI2
aI0
aI2
aI1
aI0
aI1
aI1
aI1
aI1
aI1
aI0
aI1
aI1
aI1
aI1
aI0
aI2
aI1
aI1
aI2
aI2
aI1
aI1
aI1
aI2
aI1
aI2
aI2
aI1
aI0
aI1
aI1
aI1
aI2
aI1
aI2
aI2
aI0
aI1
aI2
aI0
aI1
aI2
aI0
aI1
aI2
aI1
aI1
aI1
aI2
aI2
aI2
aI0
aI2
aI0
aI1
aI0
aI0
aI1
aI1
aI1
aI1
aI1
aI1
aI2
aI0
aI2
aI1
aI2
aI1
aI2
aI1
aI0
aI1
aI1
aI1
aI1
aI1
aI1
aI0
aI1
aI2
aI2
aI0
aI1
aI1
aI1
aI1
aI2
aI2
aI0
aI2
aI1
aI0
aI2
aI1
aI1
aI0
aI1
aI1
aI1
aI1
aI1
aI1
aI0
aI1
aI0
aI2
aI0
aI1
aI1
aI1
aI0
aI1
aI1
aI1
aI1
aI1
aI0
aI0
aI1
aI0
aI1
aI0
aI1
asg17
I00
sg18
F1.0
sg19
F-0.45586971607697252
sg20
I565
sg21
I0
sg22
(lp603
I44
aI11
aI9
aI88
aI27
asg24
I138
sg25
I30
sg26
(lp604
I80
aI66
aI93
aI21
aI33
aI25
aI74
aI70
aI87
aI96
aI23
aI85
aI89
aI7
aI25
aI29
aI24
aI16
aI15
aI69
aI83
aI25
aI48
aI68
aI64
aI69
aI36
aI49
aI34
aI72
aI93
aI37
aI52
aI57
aI66
aI32
aI35
aI57
aI75
aI77
aI64
aI82
aI36
aI59
aI48
aI92
aI40
aI58
aI62
aI1
aI72
aI61
aI85
aI3
aI77
aI55
aI58
aI72
aI41
aI67
aI20
aI32
aI33
aI6
aI96
aI68
aI17
aI79
aI55
aI94
aI31
aI67
aI71
aI32
aI1
aI31
aI63
aI80
aI28
aI62
aI88
aI55
aI41
aI62
aI28
aI11
aI9
aI17
aI68
aI68
aI11
aI71
aI1
aI94
aI53
aI3
aI53
aI3
aI3
aI97
aI68
aI68
aI31
aI97
aI11
aI85
aI85
aI97
aI99
aI77
aI77
aI68
aI85
aI6
aI77
aI92
aI63
aI11
aI31
aI41
aI41
aI31
aI9
aI31
aI9
aI9
aI27
aI27
aI73
aI88
aI44
aI11
aI9
aI73
aI73
aI73
aI88
aI27
asg28
(lp605
sg30
F1.0153683932998505
sg31
I805
sg32
F1053.6018913646019
sg33
F1058.4859688092947
sg34
I339
sbag143
a(iDraughtCEMadmin
Player
p606
(dp607
g11
g437
sg13
(lp608
I0
aI2
aI0
aI0
aI2
aI2
aI1
aI2
aI2
aI2
aI2
aI1
aI1
aI2
aI1
aI1
aI1
aI1
aI1
aI1
aI1
aI1
aI1
aI0
aI1
aI0
aI2
aI2
aI1
aI0
aI2
aI2
aI1
aI0
aI2
aI0
aI0
aI0
aI1
aI0
aI2
aI2
aI1
aI1
aI0
aI1
aI1
aI1
aI2
aI1
aI0
aI0
aI1
aI0
aI1
aI2
aI0
aI2
aI0
aI0
aI2
aI2
aI1
aI0
aI0
aI0
aI1
aI1
aI1
aI2
aI0
aI1
aI1
aI0
aI1
aI2
aI1
aI0
aI2
aI0
aI1
aI1
aI2
aI0
aI2
aI1
aI0
aI2
aI1
aI1
aI2
aI1
aI1
aI0
aI2
aI1
aI1
aI2
aI1
aI2
aI1
aI1
aI0
aI0
aI0
aI0
aI1
aI1
asg15
(lp609
I0
aI2
aI0
aI0
aI2
aI2
aI1
aI2
aI2
aI2
aI2
aI1
aI1
aI2
aI1
aI1
aI1
aI1
aI1
aI1
aI1
aI1
aI1
aI0
aI1
aI0
aI2
aI2
aI1
aI0
aI2
aI2
aI1
aI0
aI2
aI0
aI0
aI0
aI1
aI0
aI2
aI2
aI1
aI1
aI0
aI1
aI1
aI1
aI2
aI1
aI0
aI0
aI1
aI0
aI1
aI2
aI0
aI2
aI0
aI0
aI2
aI2
aI1
aI0
aI0
aI0
aI1
aI1
aI1
aI2
aI0
aI1
aI1
aI0
aI1
aI2
aI1
aI0
aI2
aI0
aI1
aI1
aI2
aI0
aI2
aI1
aI0
aI2
aI1
aI1
aI2
aI1
aI1
aI0
aI2
aI1
aI1
aI2
aI1
aI2
aI1
aI1
aI0
aI0
aI0
aI0
aI1
aI1
asg17
I00
sg18
F0.98148148148148151
sg19
F-0.68494815560277411
sg20
I539
sg21
I0
sg22
(lp610
I44
aI80
aI79
aI1
aI67
asg24
I106
sg25
I32
sg26
(lp611
I82
aI16
aI88
aI77
aI65
aI92
aI56
aI49
aI13
aI11
aI74
aI26
aI88
aI6
aI85
aI39
aI39
aI63
aI92
aI55
aI87
aI35
aI66
aI63
aI39
aI37
aI63
aI27
aI64
aI16
aI30
aI97
aI99
aI22
aI39
aI31
aI17
aI55
aI77
aI35
aI60
aI31
aI80
aI97
aI53
aI71
aI60
aI68
aI53
aI85
aI50
aI14
aI7
aI58
aI30
aI6
aI14
aI64
aI33
aI61
aI61
aI88
aI1
aI15
aI86
aI86
aI15
aI31
aI63
aI72
aI1
aI72
aI58
aI58
aI64
aI30
aI88
aI72
aI72
aI64
aI1
aI1
aI1
aI88
aI44
aI1
aI66
aI27
aI31
aI53
aI2
aI79
aI79
aI96
aI31
aI9
aI27
aI79
aI67
aI79
aI50
aI50
aI44
aI80
aI79
aI1
aI67
aI67
asg28
(lp612
sg30
F0.99947682841089824
sg31
I432
sg32
F1048.4055024662516
sg33
F1047.5387858666766
sg34
I324
sba(iDraughtCEMadmin
Player
p613
(dp614
g11
g437
sg13
(lp615
I1
aI2
aI1
aI1
aI1
aI2
aI2
aI1
aI0
aI2
aI0
aI0
aI1
aI1
aI0
aI1
aI1
aI1
aI2
aI1
aI1
aI1
aI1
aI2
aI2
aI2
aI0
aI1
aI2
aI1
aI0
aI1
aI1
aI0
aI2
aI0
aI1
aI1
aI0
aI1
aI1
aI1
aI0
aI1
aI0
aI2
aI0
aI1
aI0
aI2
aI1
aI1
aI1
aI2
aI1
aI1
aI2
aI1
aI1
aI1
aI1
aI0
aI1
aI1
aI1
aI1
aI0
aI2
aI0
aI2
aI0
aI1
aI2
aI1
aI2
aI1
aI0
aI2
asg15
(lp616
I1
aI2
aI1
aI1
aI1
aI2
aI2
aI1
aI0
aI2
aI0
aI0
aI1
aI1
aI0
aI1
aI1
aI1
aI2
aI1
aI1
aI1
aI1
aI2
aI2
aI2
aI0
aI1
aI2
aI1
aI0
aI1
aI1
aI0
aI2
aI0
aI1
aI1
aI0
aI1
aI1
aI1
aI0
aI1
aI0
aI2
aI0
aI1
aI0
aI2
aI1
aI1
aI1
aI2
aI1
aI1
aI2
aI1
aI1
aI1
aI1
aI0
aI1
aI1
aI1
aI1
aI0
aI2
aI0
aI2
aI0
aI1
aI2
aI1
aI2
aI1
aI0
aI2
asg17
I00
sg18
F1.0128205128205128
sg19
F0.78725297956275431
sg20
I406
sg21
I0
sg22
(lp617
I77
aI63
aI44
aI55
aI58
asg24
I79
sg25
I33
sg26
(lp618
I83
aI65
aI49
aI30
aI48
aI21
aI69
aI92
aI77
aI11
aI88
aI75
aI91
aI14
aI47
aI50
aI41
aI1
aI75
aI2
aI14
aI77
aI31
aI18
aI51
aI92
aI1
aI77
aI20
aI89
aI82
aI99
aI2
aI80
aI14
aI26
aI3
aI67
aI55
aI62
aI11
aI87
aI23
aI39
aI28
aI67
aI47
aI73
aI6
aI66
aI58
aI48
aI99
aI88
aI23
aI88
aI88
aI86
aI1
aI57
aI15
aI7
aI7
aI57
aI88
aI30
aI23
aI15
aI32
aI61
aI72
aI64
aI72
aI77
aI63
aI44
aI55
aI58
asg28
(lp619
I81
aI82
aI82
aI84
aI82
aI78
aI85
aI83
aI79
aI80
aI86
aI84
aI79
aI80
aI77
asg30
F0.98858462497253752
sg31
I490
sg32
F1037.4990528918224
sg33
F1034.3200260757576
sg34
I243
sba(iDraughtCEMadmin
Player
p620
(dp621
g11
g429
sg13
(lp622
I1
aI0
aI0
aI0
aI1
aI1
aI0
aI0
aI1
aI2
aI1
aI2
aI1
aI1
aI2
aI1
aI0
aI2
aI0
aI0
aI1
aI2
aI1
aI1
aI0
aI0
aI2
aI1
aI1
aI0
asg15
(lp623
I1
aI0
aI0
aI0
aI1
aI1
aI0
aI0
aI1
aI2
aI1
aI2
aI1
aI1
aI2
aI1
aI0
aI2
aI0
aI0
aI1
aI2
aI1
aI1
aI0
aI0
aI2
aI1
aI1
aI0
asg17
I00
sg18
F0.83333333333333337
sg19
F0.19836731432583293
sg20
I165
sg21
I0
sg22
(lp624
I67
aI16
aI98
aI8
aI19
aI30
asg24
I25
sg25
I34
sg26
(lp625
I84
aI80
aI39
aI62
aI95
aI46
aI8
aI94
aI46
aI43
aI90
aI12
aI8
aI14
aI93
aI74
aI24
aI84
aI97
aI53
aI65
aI93
aI51
aI69
aI67
aI16
aI98
aI8
aI19
aI30
asg28
(lp626
I28
aI29
aI29
aI29
aI29
aI21
aI29
aI29
aI21
aI25
aI29
aI30
aI22
aI26
aI25
aI31
aI31
aI23
aI26
aI27
aI27
asg30
F0.82738974090429218
sg31
I85
sg32
F941.56238361313126
sg33
F881.18332778419881
sg34
I113
sba(iDraughtCEMadmin
Player
p627
(dp628
g11
g429
sg13
(lp629
I1
aI2
aI2
aI1
aI1
aI1
aI1
aI2
aI2
aI0
aI1
aI1
aI1
aI1
aI1
aI1
aI1
aI1
aI0
aI1
aI1
aI0
aI1
aI1
aI2
aI1
aI0
aI0
aI0
aI1
aI0
aI2
aI2
aI0
aI1
aI2
aI1
aI1
aI1
aI0
aI1
aI1
aI1
aI1
aI1
aI0
aI1
aI0
aI0
aI0
aI1
aI1
aI1
aI1
aI0
aI2
aI1
aI1
asg15
(lp630
I1
aI2
aI2
aI1
aI1
aI1
aI1
aI2
aI2
aI0
aI1
aI1
aI1
aI1
aI1
aI1
aI1
aI1
aI0
aI1
aI1
aI0
aI1
aI1
aI2
aI1
aI0
aI0
aI0
aI1
aI0
aI2
aI2
aI0
aI1
aI2
aI1
aI1
aI1
aI0
aI1
aI1
aI1
aI1
aI1
aI0
aI1
aI0
aI0
aI0
aI1
aI1
aI1
aI1
aI0
aI2
aI1
aI1
asg17
I00
sg18
F0.91379310344827591
sg19
F-0.83072411123135914
sg20
I295
sg21
I0
sg22
(lp631
I44
aI99
aI59
aI47
aI15
asg24
I53
sg25
I35
sg26
(lp632
I85
aI81
aI82
aI41
aI39
aI96
aI11
aI67
aI70
aI5
aI94
aI62
aI58
aI23
aI71
aI80
aI0
aI25
aI64
aI2
aI59
aI78
aI29
aI32
aI77
aI44
aI73
aI44
aI99
aI60
aI82
aI71
aI62
aI30
aI75
aI57
aI60
aI73
aI73
aI13
aI47
aI89
aI40
aI40
aI49
aI87
aI86
aI22
aI32
aI20
aI40
aI89
aI22
aI44
aI99
aI59
aI47
aI15
asg28
(lp633
I58
aI59
aI60
aI60
aI62
aI52
aI62
aI63
aI52
aI55
aI64
aI65
aI53
aI56
aI57
asg30
F0.93630041695383426
sg31
I413
sg32
F1027.894260455872
sg33
F1004.9020274569542
sg34
I178
sba(iDraughtCEMadmin
Player
p634
(dp635
g11
g459
sg13
(lp636
I2
aI1
aI2
aI1
aI1
aI1
aI0
aI2
aI2
aI1
aI1
aI1
aI1
aI1
aI0
aI1
aI1
aI0
aI0
aI0
aI0
aI2
aI1
aI0
aI0
aI2
aI0
aI1
aI1
aI2
aI1
aI2
aI2
aI1
aI1
aI0
aI1
aI0
aI2
aI0
aI1
aI1
aI2
aI2
aI2
aI1
aI0
aI2
aI0
aI1
aI2
aI0
aI0
aI1
aI1
aI1
aI1
aI2
aI1
aI1
aI0
aI2
aI2
asg15
(lp637
I2
aI1
aI2
aI1
aI1
aI1
aI0
aI2
aI2
aI1
aI1
aI1
aI1
aI1
aI0
aI1
aI1
aI0
aI0
aI0
aI0
aI2
aI1
aI0
aI0
aI2
aI0
aI1
aI1
aI2
aI1
aI2
aI2
aI1
aI1
aI0
aI1
aI0
aI2
aI0
aI1
aI1
aI2
aI2
aI2
aI1
aI0
aI2
aI0
aI1
aI2
aI0
aI0
aI1
aI1
aI1
aI1
aI2
aI1
aI1
aI0
aI2
aI2
asg17
I00
sg18
F1.0158730158730158
sg19
F1.1795260442994391
sg20
I326
sg21
I0
sg22
(lp638
I96
aI20
aI38
aI7
aI72
asg24
I64
sg25
I36
sg26
(lp639
I86
aI70
aI25
aI92
aI57
aI40
aI61
aI48
aI80
aI22
aI97
aI39
aI39
aI57
aI2
aI95
aI63
aI7
aI24
aI60
aI62
aI28
aI25
aI30
aI93
aI76
aI3
aI23
aI70
aI75
aI31
aI68
aI44
aI10
aI74
aI22
aI49
aI13
aI59
aI83
aI48
aI66
aI30
aI61
aI97
aI88
aI22
aI1
aI60
aI80
aI67
aI7
aI5
aI15
aI15
aI15
aI16
aI82
aI96
aI20
aI38
aI7
aI72
asg28
(lp640
I64
aI64
aI66
aI64
aI68
aI62
aI65
aI68
aI64
aI60
aI66
aI70
aI65
aI62
aI63
asg30
F0.98179285149584017
sg31
I457
sg32
F1025.814070061283
sg33
F1020.6670856625881
sg34
I196
sba(iDraughtCEMadmin
Player
p641
(dp642
g11
g429
sg13
(lp643
I2
aI1
aI1
aI0
aI1
aI1
aI1
aI1
aI2
aI1
aI0
aI2
aI2
aI1
aI1
aI1
aI1
aI1
aI1
aI0
aI1
aI0
aI1
aI1
aI1
aI0
aI1
aI0
aI1
aI2
aI1
aI0
aI1
aI0
aI1
aI1
aI1
aI1
aI1
aI1
aI1
aI0
aI0
aI1
aI0
aI0
aI2
aI1
asg15
(lp644
I2
aI1
aI1
aI0
aI1
aI1
aI1
aI1
aI2
aI1
aI0
aI2
aI2
aI1
aI1
aI1
aI1
aI1
aI1
aI0
aI1
aI0
aI1
aI1
aI1
aI0
aI1
aI0
aI1
aI2
aI1
aI0
aI1
aI0
aI1
aI1
aI1
aI1
aI1
aI1
aI1
aI0
aI0
aI1
aI0
aI0
aI2
aI1
asg17
I00
sg18
F0.875
sg19
F-1.146984671275618
sg20
I285
sg21
I0
sg22
(lp645
I67
aI67
aI40
aI22
aI10
aI87
asg24
I42
sg25
I37
sg26
(lp646
I87
aI72
aI31
aI58
aI77
aI15
aI42
aI11
aI53
aI72
aI20
aI24
aI81
aI60
aI80
aI40
aI25
aI82
aI77
aI26
aI44
aI15
aI15
aI22
aI12
aI1
aI32
aI30
aI22
aI69
aI23
aI1
aI22
aI39
aI13
aI13
aI83
aI59
aI52
aI10
aI10
aI89
aI67
aI67
aI40
aI22
aI10
aI87
asg28
(lp647
I46
aI47
aI47
aI49
aI49
aI43
aI50
aI50
aI44
aI44
aI52
aI52
aI45
aI45
aI43
aI52
aI52
aI46
aI47
aI43
aI45
asg30
F0.90958644919804488
sg31
I342
sg32
F1012.7310926708202
sg33
F980.08520471230065
sg34
I190
sba(iDraughtCEMadmin
Player
p648
(dp649
g11
g437
sg13
(lp650
I1
aI0
aI1
aI2
aI1
aI2
aI1
aI1
aI1
aI2
aI2
aI0
aI1
aI1
aI0
aI0
aI2
aI2
aI1
aI1
aI0
aI1
aI0
aI1
aI2
aI1
aI1
aI1
aI1
aI1
aI2
aI1
aI0
aI1
aI1
aI2
aI1
aI1
aI2
aI0
aI1
aI1
aI1
aI0
aI1
aI2
aI1
aI0
aI2
aI1
aI1
aI1
aI0
aI0
aI1
aI1
aI1
aI1
aI2
aI0
aI2
aI2
aI1
aI1
aI1
aI1
aI1
aI1
aI1
aI0
aI2
aI1
aI0
aI1
aI1
aI1
aI2
aI0
aI1
aI1
aI1
aI1
aI1
aI2
aI1
aI1
aI0
aI1
aI1
aI0
aI0
aI1
aI1
asg15
(lp651
I1
aI0
aI1
aI2
aI1
aI2
aI1
aI1
aI1
aI2
aI2
aI0
aI1
aI1
aI0
aI0
aI2
aI2
aI1
aI1
aI0
aI1
aI0
aI1
aI2
aI1
aI1
aI1
aI1
aI1
aI2
aI1
aI0
aI1
aI1
aI2
aI1
aI1
aI2
aI0
aI1
aI1
aI1
aI0
aI1
aI2
aI1
aI0
aI2
aI1
aI1
aI1
aI0
aI0
aI1
aI1
aI1
aI1
aI2
aI0
aI2
aI2
aI1
aI1
aI1
aI1
aI1
aI1
aI1
aI0
aI2
aI1
aI0
aI1
aI1
aI1
aI2
aI0
aI1
aI1
aI1
aI1
aI1
aI2
aI1
aI1
aI0
aI1
aI1
aI0
aI0
aI1
aI1
asg17
I00
sg18
F0.989247311827957
sg19
F-0.29876911967999148
sg20
I479
sg21
I0
sg22
(lp652
I80
aI73
aI2
aI1
aI67
asg24
I92
sg25
I38
sg26
(lp653
I88
aI86
aI75
aI42
aI24
aI69
aI52
aI19
aI89
aI94
aI10
aI67
aI25
aI25
aI27
aI15
aI31
aI96
aI48
aI76
aI61
aI22
aI14
aI44
aI80
aI85
aI59
aI57
aI26
aI17
aI79
aI24
aI2
aI73
aI40
aI16
aI9
aI26
aI5
aI68
aI77
aI15
aI92
aI92
aI61
aI7
aI48
aI58
aI68
aI53
aI71
aI72
aI57
aI68
aI31
aI16
aI86
aI5
aI80
aI31
aI36
aI57
aI71
aI50
aI11
aI64
aI79
aI99
aI63
aI1
aI73
aI55
aI44
aI11
aI11
aI86
aI15
aI2
aI99
aI88
aI96
aI55
aI15
aI50
aI50
aI27
aI79
aI66
aI80
aI73
aI2
aI1
aI67
asg28
(lp654
I96
aI96
aI98
aI98
aI98
aI93
aI100
aI99
aI94
aI90
aI101
aI100
aI94
aI91
aI93
asg30
F0.99735618140081783
sg31
I470
sg32
F1041.2503515932585
sg33
F1040.0330236703785
sg34
I288
sba(iDraughtCEMadmin
Player
p655
(dp656
g11
g429
sg13
(lp657
I0
aI1
aI2
aI2
aI1
aI1
aI0
aI1
aI0
aI2
aI1
aI0
aI1
aI1
aI1
aI1
aI2
aI1
aI1
aI1
aI1
aI0
aI2
aI2
aI2
aI1
aI1
aI0
aI0
aI0
aI0
aI1
aI2
aI1
aI1
aI1
aI1
aI0
aI0
aI1
aI2
aI1
aI1
aI1
aI1
aI1
aI2
aI1
aI1
aI2
aI0
aI0
aI0
asg15
(lp658
I0
aI1
aI2
aI2
aI1
aI1
aI0
aI1
aI0
aI2
aI1
aI0
aI1
aI1
aI1
aI1
aI2
aI1
aI1
aI1
aI1
aI0
aI2
aI2
aI2
aI1
aI1
aI0
aI0
aI0
aI0
aI1
aI2
aI1
aI1
aI1
aI1
aI0
aI0
aI1
aI2
aI1
aI1
aI1
aI1
aI1
aI2
aI1
aI1
aI2
aI0
aI0
aI0
asg17
I00
sg18
F0.94339622641509435
sg19
F-0.606522152688865
sg20
I274
sg21
I0
sg22
(lp659
I2
aI2
aI57
aI15
aI16
asg24
I50
sg25
I39
sg26
(lp660
I18
aI34
aI79
aI48
aI35
aI98
aI92
aI73
aI60
aI47
aI28
aI36
aI36
aI86
aI55
aI17
aI7
aI32
aI32
aI41
aI86
aI22
aI90
aI93
aI2
aI3
aI70
aI67
aI32
aI61
aI22
aI57
aI60
aI82
aI14
aI94
aI74
aI37
aI89
aI52
aI70
aI22
aI27
aI32
aI74
aI49
aI87
aI33
aI2
aI2
aI57
aI15
aI16
asg28
(lp661
I53
aI53
aI53
aI55
aI55
aI53
aI56
aI56
aI54
aI52
aI57
aI57
aI56
aI52
aI52
asg30
F0.96126105053160671
sg31
I268
sg32
F1018.2451586246569
sg33
F1004.1726079988568
sg34
I165
sba(iDraughtCEMadmin
Player
p662
(dp663
g11
g429
sg13
(lp664
I1
aI1
aI2
aI2
aI1
aI1
aI0
aI0
aI2
aI2
aI1
aI0
aI1
aI2
aI1
aI1
aI1
aI1
aI1
aI1
aI1
aI1
aI1
aI0
aI1
aI1
aI1
aI1
aI2
aI1
aI1
aI0
aI2
aI0
aI1
aI0
aI1
aI1
aI1
aI1
aI0
aI0
aI1
aI0
aI2
aI1
aI1
aI1
aI0
aI0
aI1
aI1
aI1
asg15
(lp665
I1
aI1
aI2
aI2
aI1
aI1
aI0
aI0
aI2
aI2
aI1
aI0
aI1
aI2
aI1
aI1
aI1
aI1
aI1
aI1
aI1
aI1
aI1
aI0
aI1
aI1
aI1
aI1
aI2
aI1
aI1
aI0
aI2
aI0
aI1
aI0
aI1
aI1
aI1
aI1
aI0
aI0
aI1
aI0
aI2
aI1
aI1
aI1
aI0
aI0
aI1
aI1
aI1
asg17
I00
sg18
F0.92452830188679247
sg19
F-1.2643729758350788
sg20
I264
sg21
I0
sg22
(lp666
I55
aI30
aI35
aI82
aI59
asg24
I49
sg25
I40
sg26
(lp667
I90
aI77
aI55
aI36
aI83
aI73
aI61
aI24
aI88
aI85
aI44
aI65
aI14
aI37
aI97
aI90
aI42
aI13
aI16
aI11
aI85
aI95
aI44
aI14
aI67
aI47
aI76
aI9
aI13
aI23
aI38
aI96
aI79
aI79
aI57
aI16
aI7
aI72
aI28
aI28
aI37
aI89
aI86
aI87
aI35
aI35
aI22
aI49
aI55
aI30
aI35
aI82
aI59
asg28
(lp668
I53
aI55
aI54
aI56
aI54
aI46
aI57
aI55
aI47
aI49
aI59
aI57
aI48
aI50
aI50
asg30
F0.96220518857674853
sg31
I362
sg32
F1018.9252356717915
sg33
F1004.5233424543073
sg34
I159
sbag127
a(iDraughtCEMadmin
Player
p669
(dp670
g11
g429
sg13
(lp671
I0
aI0
aI2
aI0
aI1
aI1
aI1
aI1
aI1
aI1
aI1
aI0
aI1
aI0
aI1
aI1
aI1
aI2
aI0
aI1
aI2
aI0
aI0
aI0
asg15
(lp672
I0
aI0
aI2
aI0
aI1
aI1
aI1
aI1
aI1
aI1
aI1
aI0
aI1
aI0
aI1
aI1
aI1
aI2
aI0
aI1
aI2
aI0
aI0
aI0
asg17
I00
sg18
F0.75
sg19
F-0.11409367521149534
sg20
I134
sg21
I0
sg22
(lp673
I50
aI40
aI56
aI82
aI65
aI54
asg24
I18
sg25
I42
sg26
(lp674
I92
aI20
aI46
aI38
aI91
aI4
aI37
aI14
aI69
aI19
aI17
aI98
aI15
aI80
aI12
aI75
aI93
aI48
aI50
aI40
aI56
aI82
aI65
aI54
asg28
(lp675
I22
aI24
aI22
aI26
aI23
aI16
aI27
aI24
aI17
aI20
aI28
aI25
aI17
aI21
aI20
aI29
aI25
aI17
aI23
aI21
aI19
asg30
F0.75432009286814694
sg31
I74
sg32
F951.15717477213411
sg33
F863.90276784903756
sg34
I89
sba(iDraughtCEMadmin
Player
p676
(dp677
g11
g429
sg13
(lp678
I0
aI0
aI0
aI1
aI0
aI1
aI1
aI1
aI0
aI0
aI1
aI2
aI1
aI0
aI1
aI1
aI2
aI0
aI0
aI1
aI2
aI1
aI0
aI1
asg15
(lp679
I0
aI0
aI0
aI1
aI0
aI1
aI1
aI1
aI0
aI0
aI1
aI2
aI1
aI0
aI1
aI1
aI2
aI0
aI0
aI1
aI2
aI1
aI0
aI1
asg17
I00
sg18
F0.70833333333333337
sg19
F0.77426650698058674
sg20
I116
sg21
I0
sg22
(lp680
I2
aI64
aI84
aI56
aI93
aI46
asg24
I17
sg25
I43
sg26
(lp681
I93
aI22
aI46
aI17
aI59
aI61
aI84
aI34
aI56
aI46
aI66
aI2
aI21
aI46
aI65
aI25
aI2
aI64
aI84
aI56
aI93
aI4
aI81
aI46
asg28
(lp682
I21
aI21
aI21
aI22
aI23
aI14
aI23
aI25
aI16
aI17
aI24
aI26
aI18
aI17
aI18
aI25
aI27
aI19
aI17
aI20
aI8
asg30
F0.68927163869283459
sg31
I25
sg32
F884.2286427479612
sg33
F773.35399418513589
sg34
I81
sbag79
a(iDraughtCEMadmin
Player
p683
(dp684
g11
g429
sg13
(lp685
I1
aI1
aI1
aI0
aI0
aI0
aI2
aI0
aI2
aI1
aI0
aI0
aI0
aI1
aI0
aI2
aI0
aI2
aI0
aI1
aI1
aI2
aI1
aI0
asg15
(lp686
I1
aI1
aI1
aI0
aI0
aI0
aI2
aI0
aI2
aI1
aI0
aI0
aI0
aI1
aI0
aI2
aI0
aI2
aI0
aI1
aI1
aI2
aI1
aI0
asg17
I00
sg18
F0.75
sg19
F0.86871577318462423
sg20
I128
sg21
I0
sg22
(lp687
I28
aI59
aI54
aI21
aI78
aI93
asg24
I18
sg25
I45
sg26
(lp688
I95
aI98
aI72
aI73
aI21
aI17
aI53
aI66
aI31
aI23
aI18
aI28
aI53
aI82
aI46
aI18
aI91
aI4
aI28
aI59
aI54
aI21
aI78
aI93
asg28
(lp689
I21
aI23
aI21
aI24
aI22
aI15
aI26
aI24
aI15
aI15
aI27
aI24
aI17
aI17
aI18
aI27
aI25
aI19
aI19
aI18
aI20
asg30
F0.7279303976002327
sg31
I71
sg32
F941.08403856788311
sg33
F844.98434660922135
sg34
I86
sba(iDraughtCEMadmin
Player
p690
(dp691
g11
g429
sg13
(lp692
I0
aI0
aI0
aI1
aI0
aI1
aI0
aI1
aI1
aI1
aI0
aI0
aI0
aI1
aI0
aI0
aI0
aI1
aI0
aI0
aI0
aI0
aI0
aI1
asg15
(lp693
I0
aI0
aI0
aI1
aI0
aI1
aI0
aI1
aI1
aI1
aI0
aI0
aI0
aI1
aI0
aI0
aI0
aI1
aI0
aI0
aI0
aI0
aI0
aI1
asg17
I00
sg18
F0.33333333333333331
sg19
F-0.37442674128258208
sg20
I115
sg21
I0
sg22
(lp694
I31
aI87
aI4
aI81
aI54
aI43
asg24
I8
sg25
I46
sg26
(lp695
I96
aI23
aI42
aI43
aI87
aI34
aI99
aI83
aI34
aI56
aI91
aI43
aI2
aI61
aI4
aI45
aI43
aI75
aI31
aI87
aI4
aI81
aI54
aI43
asg28
(lp696
I20
aI22
aI22
aI23
aI22
aI13
aI24
aI23
aI13
aI16
aI24
aI23
aI13
aI16
aI17
aI24
aI24
aI14
aI17
aI19
aI17
asg30
F0.3404708460027086
sg31
I34
sg32
F893.69884001250364
sg33
F618.16243068404697
sg34
I78
sba(iDraughtCEMadmin
Player
p697
(dp698
g11
g459
sg13
(lp699
I1
aI0
aI0
aI2
aI1
aI0
aI1
aI2
aI2
aI1
aI1
aI1
aI2
aI2
aI0
aI1
aI1
aI1
aI2
aI2
aI1
aI2
aI1
aI1
aI1
aI0
aI1
aI0
aI1
aI1
aI1
aI1
aI1
aI0
aI2
aI0
aI1
aI2
aI1
aI0
aI1
aI0
aI1
aI0
aI1
aI2
aI1
aI2
aI1
aI0
aI1
aI1
aI1
aI1
aI0
aI0
aI1
aI1
aI0
aI1
aI0
aI1
aI0
asg15
(lp700
I1
aI0
aI0
aI2
aI1
aI0
aI1
aI2
aI2
aI1
aI1
aI1
aI2
aI2
aI0
aI1
aI1
aI1
aI2
aI2
aI1
aI2
aI1
aI1
aI1
aI0
aI1
aI0
aI1
aI1
aI1
aI1
aI1
aI0
aI2
aI0
aI1
aI2
aI1
aI0
aI1
aI0
aI1
aI0
aI1
aI2
aI1
aI2
aI1
aI0
aI1
aI1
aI1
aI1
aI0
aI0
aI1
aI1
aI0
aI1
aI0
aI1
aI0
asg17
I00
sg18
F0.92063492063492058
sg19
F-1.8043480370042631
sg20
I322
sg21
I0
sg22
(lp701
I67
aI73
aI58
aI5
aI7
asg24
I58
sg25
I47
sg26
(lp702
I97
aI99
aI0
aI17
aI83
aI70
aI72
aI0
aI62
aI2
aI39
aI49
aI1
aI82
aI57
aI33
aI3
aI28
aI65
aI93
aI20
aI94
aI74
aI48
aI99
aI68
aI13
aI40
aI24
aI50
aI23
aI77
aI59
aI73
aI6
aI6
aI77
aI48
aI61
aI82
aI68
aI80
aI49
aI35
aI82
aI88
aI97
aI33
aI86
aI55
aI2
aI82
aI5
aI35
aI7
aI15
aI15
aI59
aI67
aI73
aI58
aI5
aI7
asg28
(lp703
I64
aI65
aI65
aI67
aI67
aI60
aI68
aI67
aI61
aI60
aI69
aI68
aI62
aI61
aI62
asg30
F0.97323806396051038
sg31
I253
sg32
F1032.8852481560646
sg33
F1021.7806304891029
sg34
I193
sba(iDraughtCEMadmin
Player
p704
(dp705
g11
g459
sg13
(lp706
I2
aI1
aI1
aI1
aI1
aI0
aI0
aI0
aI0
aI2
aI1
aI1
aI1
aI1
aI1
aI1
aI0
aI0
aI1
aI2
aI1
aI2
aI1
aI2
aI1
aI2
aI1
aI0
aI1
aI1
aI0
aI1
aI1
aI1
aI2
aI2
aI1
aI2
aI2
aI2
aI1
aI2
aI0
aI0
aI1
aI1
aI1
aI1
aI1
aI1
aI0
aI1
aI1
aI2
aI1
aI1
aI0
aI1
aI2
aI0
aI0
aI0
aI1
asg15
(lp707
I2
aI1
aI1
aI1
aI1
aI0
aI0
aI0
aI0
aI2
aI1
aI1
aI1
aI1
aI1
aI1
aI0
aI0
aI1
aI2
aI1
aI2
aI1
aI2
aI1
aI2
aI1
aI0
aI1
aI1
aI0
aI1
aI1
aI1
aI2
aI2
aI1
aI2
aI2
aI2
aI1
aI2
aI0
aI0
aI1
aI1
aI1
aI1
aI1
aI1
aI0
aI1
aI1
aI2
aI1
aI1
aI0
aI1
aI2
aI0
aI0
aI0
aI1
asg17
I00
sg18
F0.98412698412698407
sg19
F-0.29104786737930227
sg20
I335
sg21
I0
sg22
(lp708
I31
aI94
aI86
aI79
aI5
asg24
I62
sg25
I48
sg26
(lp709
I98
aI74
aI23
aI88
aI39
aI33
aI95
aI36
aI81
aI12
aI19
aI60
aI27
aI71
aI60
aI44
aI52
aI42
aI38
aI26
aI82
aI19
aI83
aI30
aI94
aI47
aI87
aI70
aI74
aI75
aI41
aI94
aI82
aI69
aI0
aI60
aI62
aI71
aI72
aI47
aI2
aI1
aI36
aI87
aI55
aI99
aI38
aI30
aI53
aI64
aI99
aI61
aI64
aI68
aI57
aI1
aI33
aI31
aI94
aI86
aI79
aI5
aI5
asg28
(lp710
I65
aI67
aI70
aI68
aI72
aI63
aI69
aI74
aI65
aI63
aI69
aI75
aI66
aI64
aI61
asg30
F0.99263683629741628
sg31
I404
sg32
F1017.8016057448991
sg33
F1014.9522865513127
sg34
I199
sba(iDraughtCEMadmin
Player
p711
(dp712
g11
g429
sg13
(lp713
I2
aI2
aI1
aI1
aI1
aI1
aI1
aI0
aI0
aI1
aI1
aI1
aI0
aI2
aI0
aI1
aI0
aI1
aI1
aI1
aI1
aI0
aI0
aI1
aI2
aI1
aI1
aI1
aI2
aI1
aI0
aI2
aI2
aI2
aI0
aI0
aI1
aI0
aI1
aI1
aI1
aI1
aI1
aI2
aI1
aI1
aI1
aI1
asg15
(lp714
I2
aI2
aI1
aI1
aI1
aI1
aI1
aI0
aI0
aI1
aI1
aI1
aI0
aI2
aI0
aI1
aI0
aI1
aI1
aI1
aI1
aI0
aI0
aI1
aI2
aI1
aI1
aI1
aI2
aI1
aI0
aI2
aI2
aI2
aI0
aI0
aI1
aI0
aI1
aI1
aI1
aI1
aI1
aI2
aI1
aI1
aI1
aI1
asg17
I00
sg18
F0.95833333333333337
sg19
F0.50766262652959993
sg20
I290
sg21
I0
sg22
(lp715
I71
aI58
aI47
aI39
aI74
aI40
asg24
I46
sg25
I49
sg26
(lp716
I99
aI75
aI33
aI23
aI6
aI16
aI32
aI0
aI53
aI47
aI56
aI50
aI64
aI77
aI55
aI98
aI11
aI71
aI83
aI8
aI84
aI71
aI82
aI69
aI30
aI31
aI99
aI80
aI26
aI70
aI75
aI1
aI17
aI0
aI83
aI36
aI10
aI71
aI58
aI47
aI39
aI74
aI86
aI35
aI86
aI89
aI89
aI40
asg28
(lp717
I46
aI46
aI46
aI47
aI47
aI44
aI48
aI47
aI46
aI44
aI50
aI49
aI47
aI46
aI45
aI50
aI51
aI49
aI47
aI47
aI46
asg30
F0.94272729301096025
sg31
I391
sg32
F1015.4903181519766
sg33
F996.0776045132103
sg34
I195
sbag182
a(iDraughtCEMadmin
Player
p718
(dp719
g11
g429
sg13
(lp720
I0
aI1
aI1
aI1
aI1
aI1
aI0
aI1
aI1
aI1
aI1
aI1
aI1
aI0
aI1
aI1
aI2
aI1
aI1
aI1
aI0
aI1
aI1
aI1
aI0
aI0
aI0
aI1
aI1
aI1
aI1
aI2
aI0
aI1
aI1
aI2
asg15
(lp721
I0
aI1
aI1
aI1
aI1
aI1
aI0
aI1
aI1
aI1
aI1
aI1
aI1
aI0
aI1
aI1
aI2
aI1
aI1
aI1
aI0
aI1
aI1
aI1
aI0
aI0
aI0
aI1
aI1
aI1
aI1
aI2
aI0
aI1
aI1
aI2
asg17
I00
sg18
F0.86111111111111116
sg19
F0.27374776581877996
sg20
I200
sg21
I0
sg22
(lp722
I2
aI72
aI29
aI8
aI93
aI76
asg24
I31
sg25
I51
sg26
(lp723
I1
aI24
aI16
aI66
aI25
aI85
aI26
aI21
aI84
aI62
aI69
aI16
aI68
aI69
aI82
aI76
aI56
aI15
aI20
aI74
aI75
aI34
aI12
aI11
aI33
aI95
aI78
aI84
aI29
aI29
aI2
aI72
aI29
aI8
aI93
aI76
asg28
(lp724
I33
aI34
aI33
aI36
aI34
aI29
aI38
aI35
aI30
aI28
aI39
aI36
aI31
aI28
aI31
aI40
aI38
aI31
aI30
aI31
aI30
asg30
F0.85156280136753071
sg31
I160
sg32
F978.98293037423377
sg33
F927.3004504818648
sg34
I132
sba(iDraughtCEMadmin
Player
p725
(dp726
g11
g429
sg13
(lp727
I1
aI0
aI1
aI1
aI0
aI1
aI1
aI0
aI1
aI1
aI0
aI2
aI2
aI2
aI1
aI0
aI2
aI0
aI0
aI1
aI2
aI2
aI0
aI1
aI1
aI1
aI2
aI2
aI2
aI0
aI1
aI1
aI1
aI1
aI1
aI0
aI1
aI1
aI0
aI0
aI1
aI0
asg15
(lp728
I1
aI0
aI1
aI1
aI0
aI1
aI1
aI0
aI1
aI1
aI0
aI2
aI2
aI2
aI1
aI0
aI2
aI0
aI0
aI1
aI2
aI2
aI0
aI1
aI1
aI1
aI2
aI2
aI2
aI0
aI1
aI1
aI1
aI1
aI1
aI0
aI1
aI1
aI0
aI0
aI1
aI0
asg17
I00
sg18
F0.90476190476190477
sg19
F-0.44078423933068511
sg20
I255
sg21
I0
sg22
(lp729
I27
aI27
aI75
aI7
aI10
aI26
asg24
I38
sg25
I52
sg26
(lp730
I2
aI1
aI44
aI60
aI63
aI12
aI38
aI8
aI18
aI54
aI98
aI4
aI78
aI28
aI74
aI48
aI86
aI58
aI66
aI18
aI69
aI65
aI72
aI96
aI31
aI87
aI27
aI41
aI86
aI30
aI31
aI27
aI27
aI75
aI7
aI39
aI10
aI10
aI13
aI37
aI59
aI26
asg28
(lp731
I41
aI42
aI42
aI43
aI43
aI39
aI43
aI43
aI41
aI40
aI45
aI45
aI41
aI42
aI38
aI46
aI46
aI42
aI43
aI39
aI39
asg30
F0.91619324389757872
sg31
I216
sg32
F996.21243674379559
sg33
F966.58574489777163
sg34
I171
sbag150
a(iDraughtCEMadmin
Player
p732
(dp733
g11
g429
sg13
(lp734
I0
aI0
aI1
aI1
aI1
aI1
aI2
aI0
aI0
aI1
aI0
aI2
aI0
aI0
aI1
aI0
aI2
aI1
aI1
aI0
aI1
aI0
aI2
aI2
asg15
(lp735
I0
aI0
aI1
aI1
aI1
aI1
aI2
aI0
aI0
aI1
aI0
aI2
aI0
aI0
aI1
aI0
aI2
aI1
aI1
aI0
aI1
aI0
aI2
aI2
asg17
I00
sg18
F0.79166666666666663
sg19
F1.0415911980605075
sg20
I118
sg21
I0
sg22
(lp736
I64
aI61
aI45
aI91
aI46
aI42
asg24
I19
sg25
I54
sg26
(lp737
I17
aI70
aI18
aI83
aI73
aI27
aI31
aI52
aI7
aI56
aI71
aI27
aI65
aI4
aI25
aI12
aI64
aI61
aI45
aI91
aI4
aI21
aI46
aI42
asg28
(lp738
I20
aI21
aI22
aI23
aI24
aI15
aI25
aI25
aI17
aI17
aI26
aI26
aI18
aI18
aI7
aI27
aI27
aI18
aI20
aI8
aI18
asg30
F0.76110855013944478
sg31
I64
sg32
F931.67705465874531
sg33
F848.08398387620082
sg34
I84
sba(iDraughtCEMadmin
Player
p739
(dp740
g11
g437
sg13
(lp741
I1
aI2
aI1
aI0
aI1
aI2
aI1
aI0
aI1
aI0
aI1
aI1
aI1
aI1
aI1
aI1
aI2
aI1
aI2
aI1
aI1
aI0
aI0
aI2
aI1
aI0
aI0
aI2
aI0
aI0
aI2
aI1
aI1
aI0
aI1
aI2
aI2
aI1
aI2
aI2
aI1
aI1
aI1
aI2
aI1
aI2
aI1
aI1
aI2
aI2
aI1
aI1
aI2
aI1
aI0
aI1
aI1
aI1
aI1
aI1
aI1
aI0
aI0
aI1
aI1
aI1
aI1
aI1
aI1
aI1
aI1
aI0
aI1
aI1
aI1
aI1
aI2
aI0
aI1
aI0
aI1
aI1
aI1
aI2
aI2
aI1
aI2
aI2
aI1
aI1
aI1
aI1
aI1
asg15
(lp742
I1
aI2
aI1
aI0
aI1
aI2
aI1
aI0
aI1
aI0
aI1
aI1
aI1
aI1
aI1
aI1
aI2
aI1
aI2
aI1
aI1
aI0
aI0
aI2
aI1
aI0
aI0
aI2
aI0
aI0
aI2
aI1
aI1
aI0
aI1
aI2
aI2
aI1
aI2
aI2
aI1
aI1
aI1
aI2
aI1
aI2
aI1
aI1
aI2
aI2
aI1
aI1
aI2
aI1
aI0
aI1
aI1
aI1
aI1
aI1
aI1
aI0
aI0
aI1
aI1
aI1
aI1
aI1
aI1
aI1
aI1
aI0
aI1
aI1
aI1
aI1
aI2
aI0
aI1
aI0
aI1
aI1
aI1
aI2
aI2
aI1
aI2
aI2
aI1
aI1
aI1
aI1
aI1
asg17
I00
sg18
F1.053763440860215
sg19
F1.2640551611541015
sg20
I501
sg21
I0
sg22
(lp743
I20
aI20
aI50
aI30
aI88
asg24
I98
sg25
I55
sg26
(lp744
I5
aI4
aI67
aI40
aI19
aI76
aI17
aI53
aI59
aI64
aI61
aI29
aI5
aI1
aI62
aI39
aI49
aI10
aI4
aI88
aI14
aI59
aI57
aI24
aI32
aI88
aI31
aI76
aI25
aI89
aI13
aI97
aI31
aI60
aI83
aI70
aI5
aI28
aI7
aI87
aI33
aI86
aI11
aI94
aI48
aI14
aI32
aI27
aI40
aI16
aI73
aI27
aI44
aI47
aI23
aI6
aI96
aI20
aI7
aI16
aI6
aI41
aI30
aI68
aI3
aI71
aI27
aI97
aI3
aI41
aI96
aI38
aI66
aI50
aI50
aI66
aI33
aI30
aI53
aI53
aI66
aI38
aI96
aI11
aI97
aI6
aI2
aI27
aI20
aI20
aI50
aI30
aI88
asg28
(lp745
I101
aI102
aI102
aI103
aI103
aI95
aI103
aI103
aI95
aI98
aI104
aI104
aI97
aI98
aI98
asg30
F1.0153345855841567
sg31
I403
sg32
F1037.2122776497199
sg33
F1043.804531199333
sg34
I302
sba(iDraughtCEMadmin
Player
p746
(dp747
g11
g429
sg13
(lp748
I0
aI1
aI2
aI0
aI0
aI0
aI0
aI0
aI1
aI1
aI1
aI0
aI2
aI2
aI2
aI2
aI1
aI1
aI0
aI0
aI0
aI1
aI0
aI0
asg15
(lp749
I0
aI1
aI2
aI0
aI0
aI0
aI0
aI0
aI1
aI1
aI1
aI0
aI2
aI2
aI2
aI2
aI1
aI1
aI0
aI0
aI0
aI1
aI0
aI0
asg17
I00
sg18
F0.70833333333333337
sg19
F-1.4340064429034898
sg20
I126
sg21
I0
sg22
(lp750
I99
aI70
aI42
aI43
aI76
aI21
asg24
I17
sg25
I56
sg26
(lp751
I6
aI26
aI70
aI53
aI68
aI95
aI0
aI32
aI4
aI46
aI43
aI54
aI49
aI87
aI18
aI98
aI74
aI51
aI99
aI70
aI42
aI43
aI76
aI21
asg28
(lp752
I22
aI23
aI23
aI23
aI25
aI18
aI24
aI25
aI18
aI16
aI25
aI25
aI18
aI16
aI19
aI26
aI26
aI18
aI17
aI20
aI19
asg30
F0.74777064959904549
sg31
I62
sg32
F938.10506367176094
sg33
F847.10487165789232
sg34
I84
sba(iDraughtCEMadmin
Player
p753
(dp754
g11
g459
sg13
(lp755
I2
aI1
aI1
aI2
aI1
aI1
aI1
aI1
aI1
aI0
aI1
aI0
aI2
aI1
aI2
aI1
aI1
aI0
aI1
aI1
aI0
aI1
aI2
aI1
aI2
aI1
aI0
aI1
aI2
aI0
aI0
aI1
aI0
aI1
aI1
aI1
aI1
aI2
aI1
aI0
aI1
aI2
aI1
aI1
aI2
aI1
aI2
aI1
aI1
aI0
aI2
aI1
aI2
aI1
aI0
aI1
aI1
aI0
aI1
aI1
aI1
aI0
aI1
aI1
aI1
aI0
aI1
aI0
aI0
aI1
aI1
aI0
aI1
asg15
(lp756
I2
aI1
aI1
aI2
aI1
aI1
aI1
aI1
aI1
aI0
aI1
aI0
aI2
aI1
aI2
aI1
aI1
aI0
aI1
aI1
aI0
aI1
aI2
aI1
aI2
aI1
aI0
aI1
aI2
aI0
aI0
aI1
aI0
aI1
aI1
aI1
aI1
aI2
aI1
aI0
aI1
aI2
aI1
aI1
aI2
aI1
aI2
aI1
aI1
aI0
aI2
aI1
aI2
aI1
aI0
aI1
aI1
aI0
aI1
aI1
aI1
aI0
aI1
aI1
aI1
aI0
aI1
aI0
aI0
aI1
aI1
aI0
aI1
asg17
I00
sg18
F0.9452054794520548
sg19
F-1.6876548467441581
sg20
I369
sg21
I0
sg22
(lp757
I6
aI2
aI58
aI72
aI61
asg24
I69
sg25
I57
sg26
(lp758
I7
aI79
aI78
aI20
aI36
aI97
aI69
aI20
aI79
aI70
aI63
aI14
aI4
aI21
aI47
aI36
aI97
aI11
aI91
aI9
aI64
aI44
aI55
aI3
aI95
aI84
aI38
aI7
aI44
aI20
aI73
aI39
aI10
aI30
aI94
aI2
aI40
aI30
aI35
aI87
aI97
aI31
aI86
aI79
aI61
aI85
aI50
aI39
aI71
aI38
aI11
aI97
aI48
aI61
aI53
aI99
aI38
aI58
aI31
aI31
aI79
aI7
aI33
aI72
aI15
aI72
aI72
aI33
aI6
aI2
aI58
aI72
aI61
asg28
(lp759
I75
aI75
aI75
aI76
aI75
aI69
aI77
aI77
aI70
aI71
aI77
aI78
aI71
aI71
aI72
asg30
F0.99235930347476109
sg31
I517
sg32
F1033.9990253042847
sg33
F1029.6566689249821
sg34
I222
sba(iDraughtCEMadmin
Player
p760
(dp761
g11
g437
sg13
(lp762
I2
aI1
aI1
aI2
aI2
aI1
aI2
aI1
aI1
aI1
aI0
aI0
aI1
aI2
aI1
aI1
aI0
aI1
aI2
aI1
aI1
aI1
aI1
aI2
aI2
aI1
aI2
aI1
aI1
aI1
aI0
aI1
aI0
aI0
aI1
aI1
aI2
aI2
aI0
aI1
aI1
aI0
aI1
aI0
aI1
aI0
aI2
aI2
aI2
aI1
aI1
aI0
aI0
aI1
aI1
aI0
aI0
aI1
aI0
aI0
aI2
aI1
aI1
aI0
aI0
aI1
aI1
aI1
aI2
aI1
aI1
aI1
aI1
aI2
aI1
aI1
aI2
aI0
aI1
aI1
aI1
aI1
aI0
asg15
(lp763
I2
aI1
aI1
aI2
aI2
aI1
aI2
aI1
aI1
aI1
aI0
aI0
aI1
aI2
aI1
aI1
aI0
aI1
aI2
aI1
aI1
aI1
aI1
aI2
aI2
aI1
aI2
aI1
aI1
aI1
aI0
aI1
aI0
aI0
aI1
aI1
aI2
aI2
aI0
aI1
aI1
aI0
aI1
aI0
aI1
aI0
aI2
aI2
aI2
aI1
aI1
aI0
aI0
aI1
aI1
aI0
aI0
aI1
aI0
aI0
aI2
aI1
aI1
aI0
aI0
aI1
aI1
aI1
aI2
aI1
aI1
aI1
aI1
aI2
aI1
aI1
aI2
aI0
aI1
aI1
aI1
aI1
aI0
asg17
I00
sg18
F0.97590361445783136
sg19
F-0.47992620942115993
sg20
I428
sg21
I0
sg22
(lp764
I80
aI80
aI15
aI32
aI1
asg24
I81
sg25
I58
sg26
(lp765
I8
aI83
aI22
aI37
aI74
aI11
aI81
aI78
aI6
aI92
aI79
aI70
aI7
aI93
aI35
aI99
aI13
aI52
aI69
aI16
aI68
aI71
aI67
aI82
aI73
aI63
aI85
aI88
aI17
aI73
aI28
aI5
aI97
aI13
aI89
aI62
aI80
aI14
aI31
aI89
aI49
aI77
aI82
aI38
aI3
aI22
aI67
aI20
aI30
aI63
aI63
aI33
aI5
aI86
aI88
aI80
aI47
aI14
aI57
aI30
aI41
aI72
aI5
aI32
aI17
aI31
aI57
aI61
aI64
aI64
aI31
aI67
aI1
aI86
aI33
aI80
aI80
aI15
aI32
aI72
aI32
aI1
aI1
asg28
(lp766
I86
aI87
aI87
aI89
aI89
aI81
aI90
aI90
aI83
aI80
aI90
aI90
aI84
aI82
aI82
asg30
F0.9890790200955607
sg31
I772
sg32
F1038.7552154102477
sg33
F1034.4808012950382
sg34
I258
sba(iDraughtCEMadmin
Player
p767
(dp768
g11
g429
sg13
(lp769
I0
aI1
aI1
aI2
aI1
aI1
aI1
aI1
aI1
aI0
aI1
aI0
aI2
aI2
aI1
aI2
aI2
aI1
aI0
aI1
aI1
aI2
aI0
aI1
aI1
aI1
aI1
aI1
aI1
aI2
aI1
aI0
aI1
aI1
aI0
aI2
aI0
aI0
aI0
aI0
aI1
aI2
aI1
aI2
aI1
aI2
aI0
aI2
aI1
aI0
aI0
aI0
aI1
aI1
aI1
aI0
aI0
aI1
asg15
(lp770
I0
aI1
aI1
aI2
aI1
aI1
aI1
aI1
aI1
aI0
aI1
aI0
aI2
aI2
aI1
aI2
aI2
aI1
aI0
aI1
aI1
aI2
aI0
aI1
aI1
aI1
aI1
aI1
aI1
aI2
aI1
aI0
aI1
aI1
aI0
aI2
aI0
aI0
aI0
aI0
aI1
aI2
aI1
aI2
aI1
aI2
aI0
aI2
aI1
aI0
aI0
aI0
aI1
aI1
aI1
aI0
aI0
aI1
asg17
I00
sg18
F0.91379310344827591
sg19
F-1.4883029915611816
sg20
I291
sg21
I0
sg22
(lp771
I27
aI27
aI35
aI5
aI47
asg24
I53
sg25
I59
sg26
(lp772
I9
aI27
aI98
aI12
aI15
aI3
aI43
aI55
aI86
aI29
aI2
aI14
aI41
aI66
aI45
aI26
aI55
aI96
aI35
aI9
aI90
aI38
aI17
aI26
aI8
aI92
aI96
aI67
aI47
aI3
aI85
aI26
aI37
aI83
aI36
aI10
aI52
aI70
aI17
aI14
aI60
aI86
aI30
aI94
aI28
aI86
aI16
aI16
aI16
aI22
aI82
aI22
aI40
aI27
aI27
aI35
aI5
aI47
asg28
(lp773
I58
aI59
aI59
aI61
aI61
aI51
aI62
aI62
aI52
aI57
aI62
aI62
aI53
aI58
aI56
asg30
F0.95517075837516074
sg31
I225
sg32
F1018.1562637768629
sg33
F1001.0822407009135
sg34
I178
sba(iDraughtCEMadmin
Player
p774
(dp775
g11
g429
sg13
(lp776
I0
aI1
aI1
aI1
aI1
aI1
aI0
aI2
aI1
aI0
aI1
aI1
aI1
aI1
aI1
aI2
aI0
aI2
aI2
aI1
aI0
aI2
aI0
aI2
aI1
aI1
aI0
aI1
aI1
aI1
aI1
aI1
aI0
aI2
aI1
aI0
aI1
aI1
aI2
aI1
aI1
aI1
aI1
aI1
aI1
aI1
aI1
aI0
aI1
aI1
aI1
aI2
aI2
aI1
aI1
aI2
aI1
aI0
asg15
(lp777
I0
aI1
aI1
aI1
aI1
aI1
aI0
aI2
aI1
aI0
aI1
aI1
aI1
aI1
aI1
aI2
aI0
aI2
aI2
aI1
aI0
aI2
aI0
aI2
aI1
aI1
aI0
aI1
aI1
aI1
aI1
aI1
aI0
aI2
aI1
aI0
aI1
aI1
aI2
aI1
aI1
aI1
aI1
aI1
aI1
aI1
aI1
aI0
aI1
aI1
aI1
aI2
aI2
aI1
aI1
aI2
aI1
aI0
asg17
I00
sg18
F1.0
sg19
F1.2574868366449665
sg20
I301
sg21
I0
sg22
(lp778
I96
aI17
aI5
aI79
aI32
asg24
I58
sg25
I60
sg26
(lp779
I10
aI29
aI87
aI52
aI28
aI25
aI88
aI72
aI28
aI39
aI65
aI48
aI22
aI37
aI48
aI84
aI77
aI74
aI70
aI5
aI62
aI0
aI17
aI36
aI63
aI63
aI17
aI25
aI86
aI74
aI62
aI68
aI35
aI55
aI39
aI48
aI15
aI80
aI13
aI72
aI87
aI35
aI66
aI96
aI59
aI16
aI7
aI5
aI77
aI32
aI89
aI22
aI36
aI96
aI17
aI5
aI79
aI32
asg28
(lp780
I59
aI60
aI60
aI61
aI60
aI55
aI62
aI60
aI57
aI58
aI63
aI62
aI58
aI58
aI60
asg30
F0.96606826927222689
sg31
I238
sg32
F1022.8617126161649
sg33
F1012.3255810863601
sg34
I183
sba(iDraughtCEMadmin
Player
p781
(dp782
g11
g459
sg13
(lp783
I1
aI2
aI1
aI0
aI1
aI0
aI2
aI1
aI0
aI1
aI1
aI2
aI1
aI1
aI2
aI1
aI1
aI0
aI2
aI2
aI2
aI1
aI1
aI1
aI1
aI1
aI2
aI0
aI1
aI1
aI2
aI1
aI1
aI1
aI0
aI1
aI1
aI0
aI0
aI1
aI1
aI1
aI1
aI1
aI1
aI1
aI2
aI1
aI2
aI1
aI0
aI0
aI1
aI2
aI1
aI1
aI1
aI1
aI1
aI1
aI1
aI1
aI1
aI0
aI1
aI1
aI0
aI2
aI0
aI0
aI1
aI1
aI1
asg15
(lp784
I1
aI2
aI1
aI0
aI1
aI0
aI2
aI1
aI0
aI1
aI1
aI2
aI1
aI1
aI2
aI1
aI1
aI0
aI2
aI2
aI2
aI1
aI1
aI1
aI1
aI1
aI2
aI0
aI1
aI1
aI2
aI1
aI1
aI1
aI0
aI1
aI1
aI0
aI0
aI1
aI1
aI1
aI1
aI1
aI1
aI1
aI2
aI1
aI2
aI1
aI0
aI0
aI1
aI2
aI1
aI1
aI1
aI1
aI1
aI1
aI1
aI1
aI1
aI0
aI1
aI1
aI0
aI2
aI0
aI0
aI1
aI1
aI1
asg17
I00
sg18
F0.98630136986301364
sg19
F-0.6605612262273326
sg20
I377
sg21
I0
sg22
(lp785
I20
aI53
aI72
aI58
aI57
asg24
I72
sg25
I61
sg26
(lp786
I11
aI6
aI96
aI23
aI16
aI36
aI43
aI40
aI81
aI55
aI25
aI70
aI46
aI78
aI73
aI89
aI50
aI72
aI54
aI38
aI71
aI67
aI5
aI8
aI8
aI16
aI94
aI96
aI5
aI93
aI39
aI94
aI68
aI62
aI5
aI22
aI10
aI96
aI47
aI67
aI6
aI6
aI38
aI82
aI36
aI57
aI89
aI80
aI99
aI48
aI31
aI85
aI71
aI57
aI30
aI11
aI50
aI66
aI71
aI11
aI20
aI23
aI79
aI20
aI53
aI72
aI58
aI33
aI32
aI32
aI64
aI64
aI57
asg28
(lp787
I78
aI80
aI79
aI81
aI79
aI69
aI82
aI80
aI71
aI70
aI84
aI82
aI71
aI71
aI69
asg30
F1.0032721409441285
sg31
I388
sg32
F1026.5429263457304
sg33
F1027.0192273817763
sg34
I224
sbag102
ag70
a(iDraughtCEMadmin
Player
p788
(dp789
g11
g437
sg13
(lp790
I1
aI2
aI1
aI1
aI1
aI1
aI1
aI1
aI0
aI2
aI1
aI1
aI0
aI1
aI2
aI1
aI1
aI1
aI1
aI1
aI2
aI2
aI1
aI1
aI1
aI1
aI1
aI1
aI1
aI1
aI1
aI2
aI2
aI2
aI1
aI2
aI1
aI1
aI1
aI1
aI1
aI1
aI2
aI1
aI1
aI1
aI2
aI1
aI0
aI1
aI1
aI0
aI1
aI0
aI1
aI0
aI0
aI1
aI1
aI1
aI1
aI1
aI1
aI0
aI0
aI1
aI0
aI0
aI1
aI0
aI1
aI1
aI1
aI1
aI1
aI0
aI0
aI1
aI1
aI0
aI0
aI0
aI0
aI0
aI1
aI0
aI2
aI2
asg15
(lp791
I1
aI2
aI1
aI1
aI1
aI1
aI1
aI1
aI0
aI2
aI1
aI1
aI0
aI1
aI2
aI1
aI1
aI1
aI1
aI1
aI2
aI2
aI1
aI1
aI1
aI1
aI1
aI1
aI1
aI1
aI1
aI2
aI2
aI2
aI1
aI2
aI1
aI1
aI1
aI1
aI1
aI1
aI2
aI1
aI1
aI1
aI2
aI1
aI0
aI1
aI1
aI0
aI1
aI0
aI1
aI0
aI0
aI1
aI1
aI1
aI1
aI1
aI1
aI0
aI0
aI1
aI0
aI0
aI1
aI0
aI1
aI1
aI1
aI1
aI1
aI0
aI0
aI1
aI1
aI0
aI0
aI0
aI0
aI0
aI1
aI0
aI2
aI2
asg17
I00
sg18
F0.92045454545454541
sg19
F-2.3981498765979041
sg20
I448
sg21
I0
sg22
(lp792
I88
aI71
aI1
aI32
aI72
asg24
I81
sg25
I64
sg26
(lp793
I14
aI15
aI26
aI71
aI75
aI66
aI55
aI77
aI15
aI90
aI70
aI49
aI2
aI73
aI87
aI54
aI43
aI57
aI35
aI6
aI69
aI30
aI68
aI23
aI66
aI97
aI0
aI83
aI15
aI32
aI31
aI16
aI11
aI88
aI94
aI20
aI20
aI53
aI62
aI82
aI30
aI68
aI97
aI31
aI63
aI48
aI28
aI85
aI94
aI48
aI5
aI31
aI80
aI67
aI62
aI9
aI1
aI96
aI86
aI94
aI9
aI38
aI66
aI80
aI80
aI15
aI32
aI72
aI33
aI58
aI61
aI61
aI58
aI80
aI80
aI15
aI72
aI1
aI67
aI71
aI1
aI72
aI32
aI88
aI71
aI1
aI32
aI72
asg28
(lp794
I91
aI91
aI91
aI92
aI92
aI86
aI94
aI93
aI87
aI85
aI95
aI93
aI87
aI87
aI86
asg30
F0.99032296512268314
sg31
I541
sg32
F1045.1598421710764
sg33
F1039.3994410604575
sg34
I268
sba(iDraughtCEMadmin
Player
p795
(dp796
g11
g429
sg13
(lp797
I0
aI0
aI0
aI2
aI0
aI1
aI0
aI1
aI1
aI2
aI1
aI1
aI0
aI0
aI1
aI1
aI1
aI2
aI0
aI2
aI1
aI1
aI2
aI1
aI1
aI1
aI0
aI1
aI1
aI1
asg15
(lp798
I0
aI0
aI0
aI2
aI0
aI1
aI0
aI1
aI1
aI2
aI1
aI1
aI0
aI0
aI1
aI1
aI1
aI2
aI0
aI2
aI1
aI1
aI2
aI1
aI1
aI1
aI0
aI1
aI1
aI1
asg17
I00
sg18
F0.8666666666666667
sg19
F1.224136841948871
sg20
I168
sg21
I0
sg22
(lp799
I16
aI67
aI0
aI19
aI95
aI24
asg24
I26
sg25
I65
sg26
(lp800
I15
aI33
aI7
aI95
aI32
aI63
aI87
aI90
aI60
aI63
aI40
aI54
aI18
aI12
aI75
aI91
aI43
aI91
aI47
aI2
aI34
aI98
aI42
aI52
aI16
aI67
aI0
aI19
aI95
aI24
asg28
(lp801
I27
aI29
aI29
aI29
aI29
aI25
aI29
aI29
aI26
aI24
aI30
aI29
aI27
aI25
aI25
aI31
aI31
aI28
aI27
aI25
aI26
asg30
F0.83365822017242575
sg31
I80
sg32
F961.54803883709974
sg33
F904.43705725955988
sg34
I113
sba(iDraughtCEMadmin
Player
p802
(dp803
g11
g437
sg13
(lp804
I1
aI1
aI0
aI1
aI1
aI2
aI1
aI2
aI2
aI0
aI1
aI0
aI1
aI1
aI1
aI1
aI2
aI2
aI2
aI1
aI1
aI1
aI2
aI1
aI0
aI1
aI2
aI0
aI1
aI1
aI1
aI1
aI2
aI0
aI1
aI2
aI1
aI2
aI2
aI0
aI1
aI0
aI1
aI0
aI1
aI1
aI1
aI0
aI0
aI1
aI1
aI1
aI1
aI1
aI0
aI1
aI2
aI2
aI1
aI1
aI1
aI0
aI1
aI2
aI0
aI2
aI2
aI1
aI0
aI1
aI1
aI1
aI1
aI1
aI1
aI1
aI1
aI1
aI0
aI1
aI1
aI0
aI1
aI2
aI1
aI0
aI2
aI1
aI1
aI1
aI1
aI2
aI2
aI1
aI2
aI1
aI1
aI1
aI1
aI1
aI1
aI1
aI0
aI0
aI0
aI1
aI1
aI1
aI0
aI1
aI1
aI0
aI0
asg15
(lp805
I1
aI1
aI0
aI1
aI1
aI2
aI1
aI2
aI2
aI0
aI1
aI0
aI1
aI1
aI1
aI1
aI2
aI2
aI2
aI1
aI1
aI1
aI2
aI1
aI0
aI1
aI2
aI0
aI1
aI1
aI1
aI1
aI2
aI0
aI1
aI2
aI1
aI2
aI2
aI0
aI1
aI0
aI1
aI0
aI1
aI1
aI1
aI0
aI0
aI1
aI1
aI1
aI1
aI1
aI0
aI1
aI2
aI2
aI1
aI1
aI1
aI0
aI1
aI2
aI0
aI2
aI2
aI1
aI0
aI1
aI1
aI1
aI1
aI1
aI1
aI1
aI1
aI1
aI0
aI1
aI1
aI0
aI1
aI2
aI1
aI0
aI2
aI1
aI1
aI1
aI1
aI2
aI2
aI1
aI2
aI1
aI1
aI1
aI1
aI1
aI1
aI1
aI0
aI0
aI0
aI1
aI1
aI1
aI0
aI1
aI1
aI0
aI0
asg17
I00
sg18
F0.98230088495575218
sg19
F-0.65223010786146463
sg20
I548
sg21
I0
sg22
(lp806
I41
aI20
aI67
aI50
aI6
asg24
I111
sg25
I66
sg26
(lp807
I16
aI30
aI86
aI51
aI98
aI67
aI45
aI64
aI0
aI80
aI43
aI85
aI59
aI7
aI62
aI73
aI78
aI52
aI71
aI67
aI70
aI89
aI25
aI67
aI32
aI64
aI3
aI83
aI0
aI87
aI20
aI99
aI77
aI30
aI74
aI53
aI28
aI68
aI60
aI36
aI71
aI2
aI62
aI11
aI5
aI14
aI23
aI53
aI92
aI33
aI16
aI23
aI28
aI68
aI61
aI86
aI80
aI63
aI1
aI64
aI71
aI68
aI50
aI86
aI44
aI55
aI85
aI85
aI55
aI44
aI85
aI50
aI55
aI17
aI72
aI77
aI77
aI67
aI72
aI38
aI11
aI11
aI27
aI32
aI96
aI2
aI2
aI77
aI77
aI6
aI27
aI79
aI27
aI97
aI3
aI99
aI17
aI6
aI97
aI41
aI44
aI88
aI88
aI67
aI6
aI79
aI6
aI6
aI41
aI20
aI67
aI50
aI6
asg28
(lp808
sg30
F1.0030323544660142
sg31
I440
sg32
F1049.1765228284194
sg33
F1049.5778437991726
sg34
I328
sba(iDraughtCEMadmin
Player
p809
(dp810
g11
g437
sg13
(lp811
I2
aI1
aI1
aI2
aI1
aI2
aI1
aI1
aI2
aI2
aI0
aI2
aI1
aI1
aI0
aI0
aI1
aI1
aI2
aI1
aI0
aI1
aI1
aI0
aI2
aI1
aI0
aI0
aI0
aI2
aI1
aI1
aI1
aI1
aI1
aI1
aI1
aI2
aI2
aI1
aI0
aI1
aI2
aI1
aI2
aI1
aI2
aI0
aI1
aI0
aI1
aI1
aI1
aI2
aI1
aI0
aI2
aI1
aI2
aI1
aI2
aI1
aI1
aI2
aI1
aI2
aI1
aI0
aI1
aI0
aI1
aI1
aI2
aI0
aI1
aI2
aI0
aI1
aI1
aI0
aI1
aI0
aI0
aI1
aI0
aI2
aI0
aI0
aI1
aI0
aI1
aI1
aI1
aI1
aI1
aI1
aI1
aI1
aI2
aI1
aI0
aI1
aI1
aI0
aI0
aI2
aI1
aI1
aI1
aI2
aI1
aI1
aI2
aI1
aI2
aI1
aI0
aI0
aI2
aI2
aI2
aI0
aI0
asg15
(lp812
I2
aI1
aI1
aI2
aI1
aI2
aI1
aI1
aI2
aI2
aI0
aI2
aI1
aI1
aI0
aI0
aI1
aI1
aI2
aI1
aI0
aI1
aI1
aI0
aI2
aI1
aI0
aI0
aI0
aI2
aI1
aI1
aI1
aI1
aI1
aI1
aI1
aI2
aI2
aI1
aI0
aI1
aI2
aI1
aI2
aI1
aI2
aI0
aI1
aI0
aI1
aI1
aI1
aI2
aI1
aI0
aI2
aI1
aI2
aI1
aI2
aI1
aI1
aI2
aI1
aI2
aI1
aI0
aI1
aI0
aI1
aI1
aI2
aI0
aI1
aI2
aI0
aI1
aI1
aI0
aI1
aI0
aI0
aI1
aI0
aI2
aI0
aI0
aI1
aI0
aI1
aI1
aI1
aI1
aI1
aI1
aI1
aI1
aI2
aI1
aI0
aI1
aI1
aI0
aI0
aI2
aI1
aI1
aI1
aI2
aI1
aI1
aI2
aI1
aI2
aI1
aI0
aI0
aI2
aI2
aI2
aI0
aI0
asg17
I00
sg18
F1.0081300813008129
sg19
F-0.044563439642274716
sg20
I531
sg21
I0
sg22
(lp813
I31
aI53
aI88
aI73
aI27
asg24
I124
sg25
I67
sg26
(lp814
I17
aI84
aI55
aI31
aI93
aI66
aI23
aI85
aI35
aI38
aI87
aI0
aI20
aI85
aI15
aI71
aI98
aI80
aI66
aI61
aI58
aI34
aI65
aI66
aI71
aI40
aI39
aI63
aI72
aI59
aI75
aI85
aI53
aI33
aI15
aI61
aI37
aI37
aI14
aI28
aI80
aI16
aI33
aI58
aI77
aI85
aI36
aI27
aI72
aI64
aI47
aI62
aI96
aI41
aI72
aI23
aI41
aI92
aI30
aI80
aI86
aI86
aI11
aI77
aI80
aI15
aI58
aI41
aI80
aI31
aI64
aI72
aI71
aI30
aI53
aI3
aI66
aI27
aI77
aI77
aI96
aI38
aI44
aI96
aI96
aI1
aI41
aI53
aI32
aI1
aI80
aI63
aI1
aI66
aI79
aI32
aI79
aI79
aI32
aI31
aI31
aI66
aI6
aI79
aI31
aI77
aI6
aI88
aI6
aI79
aI31
aI53
aI88
aI73
aI73
aI73
aI27
aI50
aI50
aI9
aI9
aI9
aI27
asg28
(lp815
sg30
F1.008028321169975
sg31
I742
sg32
F1050.847682701343
sg33
F1053.5925036581234
sg34
I320
sbag54
a(iDraughtCEMadmin
Player
p816
(dp817
g11
g429
sg13
(lp818
I2
aI1
aI1
aI0
aI1
aI0
aI1
aI1
aI1
aI0
aI1
aI1
aI0
aI1
aI1
aI2
aI2
aI0
aI1
aI1
aI1
aI0
aI1
aI1
aI1
aI1
aI1
aI1
aI0
aI2
aI2
aI0
aI1
aI1
aI1
aI1
asg15
(lp819
I2
aI1
aI1
aI0
aI1
aI0
aI1
aI1
aI1
aI0
aI1
aI1
aI0
aI1
aI1
aI2
aI2
aI0
aI1
aI1
aI1
aI0
aI1
aI1
aI1
aI1
aI1
aI1
aI0
aI2
aI2
aI0
aI1
aI1
aI1
aI1
asg17
I00
sg18
F0.91666666666666663
sg19
F0.65357608329986761
sg20
I216
sg21
I0
sg22
(lp820
I96
aI3
aI83
aI48
aI70
aI37
asg24
I33
sg25
I69
sg26
(lp821
I19
aI85
aI20
aI13
aI96
aI38
aI57
aI33
aI42
aI28
aI84
aI51
aI50
aI31
aI51
aI95
aI78
aI77
aI68
aI58
aI30
aI52
aI75
aI34
aI64
aI68
aI30
aI49
aI12
aI90
aI96
aI3
aI83
aI48
aI70
aI37
asg28
(lp822
I32
aI33
aI36
aI34
aI38
aI30
aI35
aI39
aI31
aI32
aI36
aI41
aI32
aI34
aI33
aI38
aI43
aI33
aI36
aI33
aI33
asg30
F0.89834206931125826
sg31
I185
sg32
F995.14341665012989
sg33
F960.35498190043108
sg34
I143
sba(iDraughtCEMadmin
Player
p823
(dp824
g11
g429
sg13
(lp825
I1
aI1
aI0
aI1
aI1
aI2
aI1
aI2
aI2
aI2
aI1
aI2
aI1
aI1
aI1
aI1
aI1
aI0
aI0
aI2
aI2
aI0
aI0
aI1
aI0
aI1
aI0
aI2
aI2
aI0
aI0
aI1
aI0
aI0
aI1
aI0
aI0
aI1
aI0
aI1
aI0
aI0
asg15
(lp826
I1
aI1
aI0
aI1
aI1
aI2
aI1
aI2
aI2
aI2
aI1
aI2
aI1
aI1
aI1
aI1
aI1
aI0
aI0
aI2
aI2
aI0
aI0
aI1
aI0
aI1
aI0
aI2
aI2
aI0
aI0
aI1
aI0
aI0
aI1
aI0
aI0
aI1
aI0
aI1
aI0
aI0
asg17
I00
sg18
F0.83333333333333337
sg19
F-2.5191821477565668
sg20
I248
sg21
I0
sg22
(lp827
I73
aI23
aI83
aI26
aI39
aI59
asg24
I35
sg25
I70
sg26
(lp828
I20
aI36
aI56
aI54
aI75
aI47
aI13
aI90
aI30
aI57
aI35
aI58
aI61
aI64
aI85
aI16
aI63
aI27
aI60
aI56
aI99
aI1
aI66
aI14
aI75
aI79
aI77
aI48
aI39
aI99
aI88
aI6
aI36
aI49
aI69
aI55
aI73
aI23
aI83
aI26
aI39
aI59
asg28
(lp829
I41
aI42
aI41
aI44
aI41
aI36
aI45
aI41
aI37
aI36
aI46
aI43
aI38
aI37
aI39
aI47
aI43
aI39
aI39
aI40
aI40
asg30
F0.90415662074611325
sg31
I249
sg32
F1016.7874691042066
sg33
F980.86635843401564
sg34
I165
sbag159
a(iDraughtCEMadmin
Player
p830
(dp831
g11
g437
sg13
(lp832
I1
aI1
aI1
aI1
aI2
aI1
aI1
aI0
aI2
aI1
aI2
aI1
aI1
aI2
aI1
aI2
aI1
aI1
aI0
aI2
aI1
aI0
aI1
aI1
aI1
aI0
aI2
aI2
aI0
aI0
aI1
aI0
aI1
aI1
aI1
aI2
aI1
aI0
aI0
aI1
aI0
aI2
aI2
aI0
aI2
aI1
aI1
aI2
aI1
aI2
aI0
aI1
aI0
aI1
aI2
aI2
aI0
aI2
aI1
aI0
aI1
aI0
aI0
aI0
aI0
aI1
aI1
aI1
aI1
aI1
aI1
aI2
aI0
aI1
aI0
aI0
aI2
aI2
aI0
aI2
aI1
aI2
aI1
aI2
aI1
aI1
aI0
aI0
asg15
(lp833
I1
aI1
aI1
aI1
aI2
aI1
aI1
aI0
aI2
aI1
aI2
aI1
aI1
aI2
aI1
aI2
aI1
aI1
aI0
aI2
aI1
aI0
aI1
aI1
aI1
aI0
aI2
aI2
aI0
aI0
aI1
aI0
aI1
aI1
aI1
aI2
aI1
aI0
aI0
aI1
aI0
aI2
aI2
aI0
aI2
aI1
aI1
aI2
aI1
aI2
aI0
aI1
aI0
aI1
aI2
aI2
aI0
aI2
aI1
aI0
aI1
aI0
aI0
aI0
aI0
aI1
aI1
aI1
aI1
aI1
aI1
aI2
aI0
aI1
aI0
aI0
aI2
aI2
aI0
aI2
aI1
aI2
aI1
aI2
aI1
aI1
aI0
aI0
asg17
I00
sg18
F0.97727272727272729
sg19
F-0.3106440238924506
sg20
I447
sg21
I0
sg22
(lp834
I80
aI63
aI32
aI66
aI64
asg24
I86
sg25
I72
sg26
(lp835
I22
aI37
aI45
aI96
aI20
aI47
aI60
aI82
aI37
aI76
aI92
aI17
aI83
aI92
aI97
aI16
aI5
aI61
aI0
aI97
aI94
aI68
aI52
aI75
aI13
aI11
aI68
aI30
aI51
aI67
aI16
aI87
aI53
aI92
aI48
aI60
aI82
aI40
aI80
aI41
aI14
aI23
aI63
aI85
aI2
aI38
aI71
aI92
aI94
aI67
aI30
aI92
aI92
aI71
aI36
aI67
aI30
aI58
aI7
aI57
aI57
aI57
aI5
aI2
aI77
aI61
aI57
aI33
aI64
aI15
aI33
aI17
aI41
aI64
aI86
aI63
aI67
aI32
aI32
aI58
aI64
aI66
aI80
aI63
aI32
aI32
aI66
aI64
asg28
(lp836
I90
aI91
aI92
aI92
aI93
aI85
aI94
aI94
aI85
aI88
aI95
aI95
aI87
aI89
aI81
asg30
F0.98420756600867176
sg31
I528
sg32
F1043.0485638761197
sg33
F1037.2506100911519
sg34
I271
sbag207
a(iDraughtCEMadmin
Player
p837
(dp838
g11
g429
sg13
(lp839
I1
aI1
aI2
aI2
aI0
aI0
aI0
aI1
aI0
aI2
aI1
aI2
aI1
aI0
aI1
aI1
aI1
aI0
aI1
aI1
aI2
aI1
aI1
aI1
aI1
aI0
aI2
aI1
aI1
aI1
aI0
aI1
aI1
aI0
aI2
aI2
aI1
aI0
aI2
aI2
aI1
aI0
aI0
aI1
aI1
aI1
aI1
aI2
asg15
(lp840
I1
aI1
aI2
aI2
aI0
aI0
aI0
aI1
aI0
aI2
aI1
aI2
aI1
aI0
aI1
aI1
aI1
aI0
aI1
aI1
aI2
aI1
aI1
aI1
aI1
aI0
aI2
aI1
aI1
aI1
aI0
aI1
aI1
aI0
aI2
aI2
aI1
aI0
aI2
aI2
aI1
aI0
aI0
aI1
aI1
aI1
aI1
aI2
asg17
I00
sg18
F0.97916666666666663
sg19
F0.34526172453556686
sg20
I288
sg21
I0
sg22
(lp841
I96
aI44
aI39
aI10
aI49
aI89
asg24
I47
sg25
I74
sg26
(lp842
I48
aI4
aI5
aI58
aI1
aI7
aI30
aI20
aI75
aI31
aI82
aI32
aI9
aI52
aI34
aI56
aI60
aI20
aI11
aI51
aI73
aI47
aI97
aI8
aI48
aI60
aI71
aI44
aI0
aI82
aI24
aI24
aI76
aI25
aI28
aI66
aI39
aI36
aI16
aI5
aI96
aI44
aI39
aI10
aI49
aI22
aI89
aI89
asg28
(lp843
I48
aI49
aI48
aI51
aI50
aI43
aI52
aI52
aI44
aI43
aI54
aI53
aI46
aI43
aI45
aI54
aI53
aI47
aI43
aI46
aI45
asg30
F0.96983415953699681
sg31
I287
sg32
F1009.347174529365
sg33
F999.20856900854494
sg34
I191
sba(iDraughtCEMadmin
Player
p844
(dp845
g11
g429
sg13
(lp846
I1
aI0
aI1
aI1
aI1
aI1
aI0
aI1
aI1
aI0
aI1
aI1
aI1
aI1
aI0
aI1
aI0
aI1
aI1
aI1
aI2
aI1
aI1
aI2
aI2
aI2
aI1
aI1
aI1
aI1
aI2
aI1
aI1
aI1
aI2
aI1
aI0
aI0
aI2
aI2
aI0
aI1
asg15
(lp847
I1
aI0
aI1
aI1
aI1
aI1
aI0
aI1
aI1
aI0
aI1
aI1
aI1
aI1
aI0
aI1
aI0
aI1
aI1
aI1
aI2
aI1
aI1
aI2
aI2
aI2
aI1
aI1
aI1
aI1
aI2
aI1
aI1
aI1
aI2
aI1
aI0
aI0
aI2
aI2
aI0
aI1
asg17
I00
sg18
F1.0
sg19
F1.02528932491266
sg20
I262
sg21
I0
sg22
(lp848
I41
aI20
aI52
aI35
aI30
aI16
asg24
I42
sg25
I75
sg26
(lp849
I49
aI38
aI76
aI70
aI28
aI6
aI64
aI19
aI74
aI44
aI33
aI3
aI24
aI42
aI81
aI65
aI25
aI46
aI3
aI33
aI21
aI51
aI69
aI29
aI70
aI72
aI7
aI73
aI22
aI48
aI23
aI27
aI7
aI36
aI49
aI67
aI41
aI20
aI52
aI35
aI30
aI16
asg28
(lp850
I43
aI43
aI45
aI43
aI46
aI37
aI45
aI47
aI37
aI39
aI47
aI49
aI38
aI40
aI43
aI48
aI49
aI38
aI41
aI44
aI42
asg30
F0.97274517084917989
sg31
I213
sg32
F993.92242410234758
sg33
F985.47607017813368
sg34
I176
sba(iDraughtCEMadmin
Player
p851
(dp852
g11
g429
sg13
(lp853
I1
aI0
aI1
aI1
aI2
aI0
aI2
aI2
aI2
aI0
aI0
aI0
aI0
aI0
aI0
aI2
aI0
aI1
aI1
aI1
aI0
aI1
aI2
aI1
aI2
aI1
aI2
aI0
aI1
aI0
aI1
aI0
aI2
aI1
aI0
aI0
asg15
(lp854
I1
aI0
aI1
aI1
aI2
aI0
aI2
aI2
aI2
aI0
aI0
aI0
aI0
aI0
aI0
aI2
aI0
aI1
aI1
aI1
aI0
aI1
aI2
aI1
aI2
aI1
aI2
aI0
aI1
aI0
aI1
aI0
aI2
aI1
aI0
aI0
asg17
I00
sg18
F0.83333333333333337
sg19
F-0.6281715226620691
sg20
I205
sg21
I0
sg22
(lp855
I40
aI14
aI8
aI24
aI74
aI51
asg24
I30
sg25
I76
sg26
(lp856
I50
aI8
aI75
aI4
aI55
aI89
aI10
aI79
aI72
aI53
aI79
aI20
aI90
aI12
aI51
aI18
aI38
aI78
aI56
aI98
aI14
aI13
aI24
aI55
aI8
aI36
aI40
aI14
aI8
aI24
aI26
aI26
aI26
aI74
aI29
aI51
asg28
(lp857
I33
aI33
aI35
aI35
aI36
aI27
aI35
aI37
aI28
aI30
aI36
aI38
aI28
aI31
aI33
aI36
aI40
aI30
aI33
aI35
aI31
asg30
F0.85056142324760931
sg31
I169
sg32
F978.14908898426211
sg33
F925.20888268822068
sg34
I138
sbag63
a(iDraughtCEMadmin
Player
p858
(dp859
g11
g429
sg13
(lp860
I2
aI1
aI1
aI2
aI0
aI1
aI0
aI1
aI2
aI0
aI1
aI2
aI0
aI1
aI0
aI0
aI0
aI0
aI0
aI0
aI2
aI1
aI1
aI0
aI0
aI1
aI0
aI1
aI1
aI1
asg15
(lp861
I2
aI1
aI1
aI2
aI0
aI1
aI0
aI1
aI2
aI0
aI1
aI2
aI0
aI1
aI0
aI0
aI0
aI0
aI0
aI0
aI2
aI1
aI1
aI0
aI0
aI1
aI0
aI1
aI1
aI1
asg17
I00
sg18
F0.73333333333333328
sg19
F-0.87621910818064641
sg20
I158
sg21
I0
sg22
(lp862
I35
aI3
aI90
aI51
aI98
aI84
asg24
I22
sg25
I78
sg26
(lp863
I28
aI90
aI57
aI86
aI10
aI27
aI62
aI58
aI95
aI73
aI28
aI0
aI52
aI6
aI61
aI62
aI69
aI19
aI66
aI94
aI81
aI76
aI45
aI91
aI35
aI3
aI90
aI51
aI98
aI84
asg28
(lp864
I27
aI28
aI27
aI28
aI29
aI22
aI28
aI31
aI23
aI22
aI28
aI32
aI25
aI23
aI22
aI29
aI33
aI25
aI24
aI23
aI24
asg30
F0.75803223766621652
sg31
I188
sg32
F986.1682523639065
sg33
F899.52297433753233
sg34
I103
sba(iDraughtCEMadmin
Player
p865
(dp866
g11
g437
sg13
(lp867
I1
aI1
aI1
aI0
aI2
aI2
aI2
aI1
aI1
aI2
aI2
aI1
aI2
aI2
aI1
aI0
aI1
aI1
aI1
aI1
aI1
aI1
aI1
aI2
aI1
aI1
aI2
aI1
aI1
aI1
aI0
aI1
aI1
aI0
aI1
aI1
aI1
aI1
aI0
aI1
aI0
aI2
aI0
aI0
aI1
aI0
aI0
aI1
aI1
aI1
aI1
aI1
aI2
aI1
aI1
aI1
aI1
aI0
aI1
aI1
aI1
aI2
aI1
aI0
aI1
aI2
aI2
aI1
aI2
aI1
aI1
aI1
aI1
aI1
aI2
aI1
aI1
aI1
aI1
aI1
aI1
aI1
aI2
aI0
aI1
aI0
aI2
aI0
aI1
aI1
aI1
aI1
aI0
aI1
aI2
aI0
aI1
aI1
aI1
aI0
aI0
aI1
aI1
aI1
aI2
aI2
aI1
aI2
aI0
aI1
aI2
aI0
aI0
aI0
aI1
aI0
aI0
aI2
aI2
aI1
aI1
aI1
aI0
asg15
(lp868
I1
aI1
aI1
aI0
aI2
aI2
aI2
aI1
aI1
aI2
aI2
aI1
aI2
aI2
aI1
aI0
aI1
aI1
aI1
aI1
aI1
aI1
aI1
aI2
aI1
aI1
aI2
aI1
aI1
aI1
aI0
aI1
aI1
aI0
aI1
aI1
aI1
aI1
aI0
aI1
aI0
aI2
aI0
aI0
aI1
aI0
aI0
aI1
aI1
aI1
aI1
aI1
aI2
aI1
aI1
aI1
aI1
aI0
aI1
aI1
aI1
aI2
aI1
aI0
aI1
aI2
aI2
aI1
aI2
aI1
aI1
aI1
aI1
aI1
aI2
aI1
aI1
aI1
aI1
aI1
aI1
aI1
aI2
aI0
aI1
aI0
aI2
aI0
aI1
aI1
aI1
aI1
aI0
aI1
aI2
aI0
aI1
aI1
aI1
aI0
aI0
aI1
aI1
aI1
aI2
aI2
aI1
aI2
aI0
aI1
aI2
aI0
aI0
aI0
aI1
aI0
aI0
aI2
aI2
aI1
aI1
aI1
aI0
asg17
I00
sg18
F0.99186991869918695
sg19
F-0.50169540255865286
sg20
I529
sg21
I0
sg22
(lp869
I11
aI99
aI9
aI88
aI50
asg24
I122
sg25
I79
sg26
(lp870
I29
aI57
aI27
aI39
aI7
aI84
aI90
aI57
aI76
aI58
aI76
aI98
aI9
aI89
aI62
aI80
aI53
aI1
aI3
aI70
aI62
aI9
aI92
aI38
aI1
aI85
aI28
aI40
aI40
aI14
aI68
aI2
aI13
aI89
aI77
aI1
aI57
aI99
aI23
aI15
aI28
aI23
aI60
aI14
aI44
aI44
aI23
aI48
aI20
aI80
aI57
aI86
aI61
aI38
aI11
aI99
aI27
aI41
aI73
aI97
aI3
aI71
aI30
aI27
aI92
aI28
aI27
aI68
aI28
aI41
aI38
aI17
aI31
aI9
aI97
aI71
aI50
aI63
aI63
aI66
aI32
aI2
aI96
aI32
aI2
aI73
aI77
aI50
aI1
aI32
aI32
aI88
aI88
aI63
aI3
aI88
aI32
aI66
aI67
aI67
aI67
aI1
aI80
aI41
aI50
aI71
aI71
aI6
aI6
aI6
aI6
aI6
aI67
aI41
aI31
aI88
aI6
aI67
aI11
aI99
aI9
aI88
aI50
asg28
(lp871
sg30
F1.0076939478502998
sg31
I528
sg32
F1055.7379173546262
sg33
F1057.9094259776541
sg34
I317
sbag47
a(iDraughtCEMadmin
Player
p872
(dp873
g11
g429
sg13
(lp874
I0
aI0
aI2
aI2
aI1
aI1
aI0
aI0
aI2
aI1
aI0
aI0
aI0
aI1
aI1
aI1
aI2
aI0
aI0
aI0
aI0
aI2
aI0
aI1
asg15
(lp875
I0
aI0
aI2
aI2
aI1
aI1
aI0
aI0
aI2
aI1
aI0
aI0
aI0
aI1
aI1
aI1
aI2
aI0
aI0
aI0
aI0
aI2
aI0
aI1
asg17
I00
sg18
F0.70833333333333337
sg19
F-1.1562408232341796
sg20
I110
sg21
I0
sg22
(lp876
I77
aI96
aI78
aI46
aI84
aI4
asg24
I17
sg25
I81
sg26
(lp877
I31
aI35
aI18
aI86
aI50
aI58
aI1
aI48
aI61
aI26
aI7
aI37
aI15
aI91
aI19
aI75
aI17
aI77
aI96
aI78
aI46
aI84
aI43
aI4
asg28
(lp878
I21
aI21
aI22
aI22
aI23
aI16
aI23
aI24
aI17
aI7
aI24
aI26
aI18
aI7
aI18
aI24
aI27
aI18
aI8
aI19
aI14
asg30
F0.74029975902718526
sg31
I85
sg32
F963.64164104290251
sg33
F870.14155845201003
sg34
I76
sba(iDraughtCEMadmin
Player
p879
(dp880
g11
g429
sg13
(lp881
I2
aI1
aI0
aI1
aI1
aI1
aI1
aI1
aI0
aI1
aI1
aI0
aI0
aI0
aI2
aI1
aI1
aI1
aI0
aI2
aI1
aI2
aI1
aI2
aI0
aI1
aI1
aI1
aI1
aI1
aI1
aI1
aI1
aI2
aI1
aI1
aI1
aI1
aI2
aI1
aI2
aI2
aI0
aI1
aI1
aI1
aI0
aI0
aI0
aI0
aI1
aI1
aI1
aI1
aI2
aI2
aI1
aI0
asg15
(lp882
I2
aI1
aI0
aI1
aI1
aI1
aI1
aI1
aI0
aI1
aI1
aI0
aI0
aI0
aI2
aI1
aI1
aI1
aI0
aI2
aI1
aI2
aI1
aI2
aI0
aI1
aI1
aI1
aI1
aI1
aI1
aI1
aI1
aI2
aI1
aI1
aI1
aI1
aI2
aI1
aI2
aI2
aI0
aI1
aI1
aI1
aI0
aI0
aI0
aI0
aI1
aI1
aI1
aI1
aI2
aI2
aI1
aI0
asg17
I00
sg18
F0.96551724137931039
sg19
F-0.09990305847342143
sg20
I300
sg21
I0
sg22
(lp883
I99
aI73
aI47
aI7
aI36
asg24
I56
sg25
I82
sg26
(lp884
I32
aI94
aI35
aI14
aI53
aI44
aI13
aI72
aI25
aI83
aI74
aI20
aI47
aI45
aI51
aI84
aI83
aI13
aI37
aI48
aI42
aI58
aI11
aI49
aI0
aI83
aI0
aI33
aI48
aI74
aI35
aI39
aI2
aI14
aI72
aI47
aI64
aI50
aI30
aI61
aI58
aI47
aI6
aI17
aI40
aI59
aI89
aI89
aI89
aI99
aI73
aI47
aI5
aI5
aI5
aI7
aI16
aI36
asg28
(lp885
I58
aI60
aI58
aI62
aI59
aI54
aI63
aI61
aI55
aI56
aI65
aI63
aI56
aI58
aI58
asg30
F0.96915595414281464
sg31
I309
sg32
F1016.4243522962439
sg33
F1005.6047298225046
sg34
I181
sba(iDraughtCEMadmin
Player
p886
(dp887
g11
g429
sg13
(lp888
I1
aI1
aI0
aI1
aI1
aI1
aI2
aI1
aI1
aI0
aI1
aI0
aI1
aI0
aI2
aI1
aI0
aI1
aI2
aI1
aI1
aI1
aI1
aI1
aI1
aI1
aI1
aI1
aI1
aI1
aI1
aI0
aI1
aI1
aI1
aI1
aI0
aI1
aI2
aI1
aI1
aI1
asg15
(lp889
I1
aI1
aI0
aI1
aI1
aI1
aI2
aI1
aI1
aI0
aI1
aI0
aI1
aI0
aI2
aI1
aI0
aI1
aI2
aI1
aI1
aI1
aI1
aI1
aI1
aI1
aI1
aI1
aI1
aI1
aI1
aI0
aI1
aI1
aI1
aI1
aI0
aI1
aI2
aI1
aI1
aI1
asg17
I00
sg18
F0.9285714285714286
sg19
F0.31451900680558542
sg20
I242
sg21
I0
sg22
(lp890
I17
aI99
aI70
aI49
aI0
aI36
asg24
I39
sg25
I83
sg26
(lp891
I33
aI58
aI16
aI47
aI54
aI40
aI46
aI23
aI16
aI82
aI31
aI73
aI72
aI19
aI24
aI44
aI82
aI99
aI49
aI30
aI48
aI8
aI28
aI5
aI82
aI66
aI64
aI69
aI22
aI55
aI17
aI99
aI70
aI49
aI0
aI0
aI37
aI10
aI13
aI89
aI59
aI36
asg28
(lp892
I41
aI43
aI41
aI44
aI43
aI34
aI45
aI44
aI35
aI37
aI45
aI44
aI35
aI38
aI38
aI46
aI44
aI35
aI39
aI38
aI40
asg30
F0.92140269782272533
sg31
I207
sg32
F997.89388512695984
sg33
F970.84446406570964
sg34
I162
sba(iDraughtCEMadmin
Player
p893
(dp894
g11
g429
sg13
(lp895
I1
aI1
aI1
aI1
aI1
aI0
aI0
aI0
aI2
aI1
aI1
aI1
aI2
aI1
aI0
aI0
aI1
aI0
aI0
aI0
aI0
aI2
aI2
aI1
aI2
aI1
aI0
aI0
aI1
aI1
asg15
(lp896
I1
aI1
aI1
aI1
aI1
aI0
aI0
aI0
aI2
aI1
aI1
aI1
aI2
aI1
aI0
aI0
aI1
aI0
aI0
aI0
aI0
aI2
aI2
aI1
aI2
aI1
aI0
aI0
aI1
aI1
asg17
I00
sg18
F0.80000000000000004
sg19
F-0.36627257711860467
sg20
I160
sg21
I0
sg22
(lp897
I17
aI57
aI12
aI95
aI51
aI78
asg24
I24
sg25
I84
sg26
(lp898
I34
aI67
aI80
aI3
aI99
aI79
aI1
aI77
aI43
aI51
aI69
aI62
aI80
aI99
aI94
aI60
aI82
aI34
aI53
aI28
aI43
aI4
aI81
aI49
aI17
aI57
aI12
aI95
aI51
aI78
asg28
(lp899
I25
aI26
aI28
aI28
aI28
aI24
aI29
aI29
aI25
aI24
aI30
aI31
aI27
aI25
aI23
aI31
aI31
aI27
aI25
aI24
aI22
asg30
F0.80831863096886081
sg31
I138
sg32
F975.20373472263418
sg33
F907.40643791670163
sg34
I107
sbag9
a(iDraughtCEMadmin
Player
p900
(dp901
g11
g437
sg13
(lp902
I0
aI2
aI2
aI0
aI1
aI0
aI1
aI1
aI2
aI2
aI0
aI0
aI1
aI1
aI1
aI0
aI2
aI2
aI2
aI0
aI1
aI2
aI2
aI1
aI0
aI0
aI1
aI0
aI1
aI2
aI0
aI2
aI1
aI2
aI0
aI2
aI0
aI2
aI2
aI1
aI0
aI1
aI1
aI0
aI0
aI0
aI1
aI2
aI2
aI0
aI2
aI1
aI1
aI2
aI1
aI0
aI1
aI1
aI1
aI2
aI2
aI2
aI1
aI0
aI0
aI1
aI1
aI0
aI1
aI2
aI1
aI1
aI1
aI0
aI1
aI1
aI0
aI0
asg15
(lp903
I0
aI2
aI2
aI0
aI1
aI0
aI1
aI1
aI2
aI2
aI0
aI0
aI1
aI1
aI1
aI0
aI2
aI2
aI2
aI0
aI1
aI2
aI2
aI1
aI0
aI0
aI1
aI0
aI1
aI2
aI0
aI2
aI1
aI2
aI0
aI2
aI0
aI2
aI2
aI1
aI0
aI1
aI1
aI0
aI0
aI0
aI1
aI2
aI2
aI0
aI2
aI1
aI1
aI2
aI1
aI0
aI1
aI1
aI1
aI2
aI2
aI2
aI1
aI0
aI0
aI1
aI1
aI0
aI1
aI2
aI1
aI1
aI1
aI0
aI1
aI1
aI0
aI0
asg17
I00
sg18
F0.97435897435897434
sg19
F-0.88907324792876352
sg20
I406
sg21
I0
sg22
(lp904
I53
aI99
aI38
aI58
aI72
asg24
I76
sg25
I86
sg26
(lp905
I36
aI38
aI66
aI78
aI81
aI5
aI85
aI7
aI59
aI71
aI92
aI92
aI39
aI0
aI25
aI52
aI6
aI12
aI44
aI39
aI99
aI50
aI73
aI7
aI60
aI62
aI52
aI73
aI13
aI88
aI41
aI77
aI55
aI20
aI53
aI57
aI59
aI40
aI22
aI49
aI22
aI89
aI49
aI35
aI87
aI10
aI20
aI94
aI59
aI47
aI17
aI41
aI38
aI58
aI6
aI77
aI48
aI66
aI64
aI28
aI99
aI33
aI79
aI23
aI14
aI67
aI67
aI66
aI23
aI14
aI53
aI99
aI38
aI58
aI15
aI32
aI32
aI72
asg28
(lp906
I84
aI85
aI84
aI85
aI84
aI77
aI86
aI85
aI79
aI77
aI87
aI87
aI79
aI77
aI76
asg30
F1.0008547840789259
sg31
I408
sg32
F1035.0368148292894
sg33
F1034.4447240606482
sg34
I243
sba(iDraughtCEMadmin
Player
p907
(dp908
g11
g429
sg13
(lp909
I0
aI1
aI1
aI0
aI2
aI2
aI1
aI1
aI1
aI1
aI1
aI1
aI1
aI0
aI2
aI2
aI1
aI1
aI1
aI2
aI0
aI1
aI0
aI1
aI0
aI2
aI1
aI1
aI2
aI2
aI2
aI1
aI0
aI1
aI1
aI0
aI1
aI1
aI0
aI0
aI1
aI0
aI1
aI2
aI1
aI0
aI0
aI1
asg15
(lp910
I0
aI1
aI1
aI0
aI2
aI2
aI1
aI1
aI1
aI1
aI1
aI1
aI1
aI0
aI2
aI2
aI1
aI1
aI1
aI2
aI0
aI1
aI0
aI1
aI0
aI2
aI1
aI1
aI2
aI2
aI2
aI1
aI0
aI1
aI1
aI0
aI1
aI1
aI0
aI0
aI1
aI0
aI1
aI2
aI1
aI0
aI0
aI1
asg17
I00
sg18
F0.9375
sg19
F-0.45047936685840573
sg20
I285
sg21
I0
sg22
(lp911
I44
aI48
aI16
aI33
aI39
aI37
asg24
I45
sg25
I87
sg26
(lp912
I37
aI60
aI98
aI46
aI90
aI65
aI14
aI30
aI71
aI96
aI67
aI56
aI0
aI17
aI96
aI64
aI12
aI46
aI1
aI11
aI62
aI7
aI1
aI32
aI48
aI31
aI73
aI52
aI9
aI66
aI80
aI97
aI72
aI11
aI11
aI55
aI60
aI57
aI44
aI48
aI16
aI33
aI39
aI40
aI35
aI10
aI86
aI37
asg28
(lp913
I47
aI48
aI46
aI50
aI47
aI44
aI52
aI48
aI45
aI46
aI53
aI49
aI46
aI46
aI46
aI53
aI50
aI46
aI47
aI47
aI42
asg30
F0.95228939632000464
sg31
I274
sg32
F1006.7658872032936
sg33
F989.7264515050191
sg34
I190
sbag166
a(iDraughtCEMadmin
Player
p914
(dp915
g11
g429
sg13
(lp916
I2
aI2
aI1
aI1
aI0
aI1
aI0
aI2
aI1
aI1
aI2
aI2
aI0
aI0
aI1
aI1
aI1
aI0
aI1
aI0
aI1
aI1
aI1
aI0
aI2
aI0
aI1
aI1
aI1
aI2
aI2
aI1
aI0
aI0
aI1
aI2
aI0
aI0
aI1
aI1
aI1
aI2
aI1
aI2
aI0
aI1
aI1
aI0
aI1
aI1
aI1
aI1
aI1
asg15
(lp917
I2
aI2
aI1
aI1
aI0
aI1
aI0
aI2
aI1
aI1
aI2
aI2
aI0
aI0
aI1
aI1
aI1
aI0
aI1
aI0
aI1
aI1
aI1
aI0
aI2
aI0
aI1
aI1
aI1
aI2
aI2
aI1
aI0
aI0
aI1
aI2
aI0
aI0
aI1
aI1
aI1
aI2
aI1
aI2
aI0
aI1
aI1
aI0
aI1
aI1
aI1
aI1
aI1
asg17
I00
sg18
F0.94339622641509435
sg19
F-0.22086023553139286
sg20
I262
sg21
I0
sg22
(lp918
I27
aI61
aI60
aI35
aI82
asg24
I50
sg25
I89
sg26
(lp919
I95
aI1
aI41
aI26
aI76
aI41
aI38
aI63
aI27
aI0
aI30
aI15
aI61
aI26
aI79
aI27
aI17
aI25
aI66
aI62
aI0
aI55
aI33
aI85
aI31
aI25
aI44
aI58
aI26
aI0
aI39
aI10
aI10
aI83
aI37
aI58
aI79
aI7
aI40
aI35
aI86
aI49
aI49
aI74
aI74
aI27
aI61
aI60
aI16
aI35
aI82
aI82
aI82
asg28
(lp920
I52
aI54
aI53
aI56
aI53
aI49
aI57
aI53
aI51
aI47
aI57
aI54
aI53
aI48
aI50
asg30
F0.95018268529830574
sg31
I323
sg32
F1018.8884926629979
sg33
F1001.3449847827806
sg34
I158
sba(iDraughtCEMadmin
Player
p921
(dp922
g11
g429
sg13
(lp923
I1
aI1
aI1
aI0
aI1
aI0
aI0
aI0
aI1
aI1
aI1
aI1
aI2
aI1
aI2
aI0
aI0
aI2
aI1
aI1
aI0
aI1
aI1
aI0
aI0
aI1
aI2
aI1
aI2
aI0
asg15
(lp924
I1
aI1
aI1
aI0
aI1
aI0
aI0
aI0
aI1
aI1
aI1
aI1
aI2
aI1
aI2
aI0
aI0
aI2
aI1
aI1
aI0
aI1
aI1
aI0
aI0
aI1
aI2
aI1
aI2
aI0
asg17
I00
sg18
F0.83333333333333337
sg19
F0.51470642372363506
sg20
I160
sg21
I0
sg22
(lp925
I39
aI59
aI78
aI24
aI18
aI69
asg24
I25
sg25
I90
sg26
(lp926
I40
aI78
aI29
aI80
aI62
aI87
aI79
aI70
aI65
aI4
aI34
aI91
aI64
aI10
aI76
aI29
aI98
aI21
aI40
aI22
aI25
aI18
aI98
aI19
aI39
aI59
aI78
aI24
aI18
aI69
asg28
(lp927
I27
aI28
aI27
aI29
aI28
aI19
aI29
aI29
aI20
aI24
aI29
aI30
aI21
aI25
aI23
aI29
aI32
aI22
aI26
aI24
aI27
asg30
F0.8185701503840348
sg31
I107
sg32
F955.8477091701468
sg33
F892.62160135663407
sg34
I109
sba(iDraughtCEMadmin
Player
p928
(dp929
g11
g429
sg13
(lp930
I0
aI2
aI0
aI0
aI1
aI1
aI1
aI0
aI0
aI0
aI2
aI1
aI1
aI1
aI1
aI1
aI0
aI0
aI1
aI1
aI1
aI2
aI1
aI2
asg15
(lp931
I0
aI2
aI0
aI0
aI1
aI1
aI1
aI0
aI0
aI0
aI2
aI1
aI1
aI1
aI1
aI1
aI0
aI0
aI1
aI1
aI1
aI2
aI1
aI2
asg17
I00
sg18
F0.83333333333333337
sg19
F2.0511221799517103
sg20
I127
sg21
I0
sg22
(lp932
I57
aI14
aI93
aI54
aI29
aI78
asg24
I20
sg25
I91
sg26
(lp933
I41
aI44
aI5
aI19
aI42
aI7
aI26
aI99
aI46
aI90
aI53
aI33
aI81
aI93
aI19
aI65
aI45
aI65
aI57
aI14
aI93
aI54
aI29
aI78
asg28
(lp934
I20
aI21
aI21
aI21
aI22
aI16
aI22
aI23
aI16
aI15
aI24
aI25
aI18
aI17
aI19
aI25
aI26
aI20
aI19
aI19
aI18
asg30
F0.77617198247282859
sg31
I89
sg32
F937.04076093574213
sg33
F859.9869113161767
sg34
I86
sbag86
a(iDraughtCEMadmin
Player
p935
(dp936
g11
g429
sg13
(lp937
I2
aI1
aI2
aI0
aI2
aI0
aI2
aI1
aI0
aI0
aI0
aI1
aI0
aI0
aI0
aI1
aI1
aI1
aI1
aI0
aI1
aI0
aI2
aI2
aI0
aI1
aI2
aI2
aI1
aI2
aI0
aI1
aI0
aI1
aI1
aI0
asg15
(lp938
I2
aI1
aI2
aI0
aI2
aI0
aI2
aI1
aI0
aI0
aI0
aI1
aI0
aI0
aI0
aI1
aI1
aI1
aI1
aI0
aI1
aI0
aI2
aI2
aI0
aI1
aI2
aI2
aI1
aI2
aI0
aI1
aI0
aI1
aI1
aI0
asg17
I00
sg18
F0.86111111111111116
sg19
F-0.73109514651349627
sg20
I209
sg21
I0
sg22
(lp939
I61
aI28
aI30
aI29
aI51
aI24
asg24
I31
sg25
I93
sg26
(lp940
I43
aI0
aI30
aI9
aI94
aI67
aI19
aI29
aI97
aI50
aI8
aI95
aI97
aI58
aI34
aI91
aI42
aI95
aI41
aI47
aI91
aI34
aI43
aI45
aI99
aI39
aI29
aI18
aI36
aI8
aI61
aI28
aI30
aI29
aI51
aI24
asg28
(lp941
I35
aI36
aI35
aI37
aI36
aI31
aI38
aI38
aI33
aI30
aI38
aI39
aI34
aI31
aI29
aI39
aI40
aI35
aI31
aI31
aI33
asg30
F0.87996125444829776
sg31
I250
sg32
F964.65374433269506
sg33
F922.01485065131669
sg34
I140
sbag38
a(iDraughtCEMadmin
Player
p942
(dp943
g11
g429
sg13
(lp944
I1
aI0
aI0
aI0
aI1
aI2
aI2
aI1
aI0
aI2
aI1
aI1
aI0
aI1
aI0
aI0
aI1
aI1
aI2
aI1
aI1
aI1
aI0
aI0
aI0
aI1
aI2
aI2
aI1
aI0
asg15
(lp945
I1
aI0
aI0
aI0
aI1
aI2
aI2
aI1
aI0
aI2
aI1
aI1
aI0
aI1
aI0
aI0
aI1
aI1
aI2
aI1
aI1
aI1
aI0
aI0
aI0
aI1
aI2
aI2
aI1
aI0
asg17
I00
sg18
F0.83333333333333337
sg19
F0.869945501539371
sg20
I164
sg21
I0
sg22
(lp946
I57
aI40
aI51
aI84
aI65
aI19
asg24
I25
sg25
I95
sg26
(lp947
I45
aI89
aI14
aI65
aI34
aI56
aI48
aI50
aI78
aI21
aI25
aI93
aI41
aI22
aI77
aI69
aI21
aI93
aI36
aI68
aI19
aI8
aI73
aI18
aI57
aI40
aI51
aI84
aI65
aI19
asg28
(lp948
I27
aI28
aI27
aI28
aI28
aI21
aI29
aI29
aI22
aI22
aI31
aI31
aI23
aI23
aI25
aI31
aI32
aI24
aI24
aI26
aI27
asg30
F0.80870076103313437
sg31
I111
sg32
F954.74711149525854
sg33
F888.32385198140435
sg34
I111
sba(iDraughtCEMadmin
Player
p949
(dp950
g11
g437
sg13
(lp951
I2
aI0
aI1
aI1
aI1
aI0
aI1
aI0
aI2
aI2
aI1
aI1
aI1
aI2
aI2
aI0
aI1
aI0
aI2
aI2
aI1
aI1
aI2
aI1
aI1
aI1
aI1
aI1
aI1
aI0
aI0
aI1
aI1
aI1
aI1
aI2
aI1
aI1
aI2
aI1
aI2
aI1
aI2
aI1
aI2
aI1
aI2
aI0
aI1
aI1
aI0
aI1
aI1
aI1
aI1
aI1
aI1
aI1
aI1
aI0
aI0
aI1
aI1
aI1
aI2
aI1
aI2
aI0
aI1
aI0
aI1
aI2
aI1
aI1
aI0
aI1
aI0
aI2
aI0
aI1
aI1
aI0
aI1
aI2
aI1
aI0
aI1
aI1
aI1
aI0
aI1
aI0
aI1
aI1
aI1
aI2
aI1
aI0
asg15
(lp952
I2
aI0
aI1
aI1
aI1
aI0
aI1
aI0
aI2
aI2
aI1
aI1
aI1
aI2
aI2
aI0
aI1
aI0
aI2
aI2
aI1
aI1
aI2
aI1
aI1
aI1
aI1
aI1
aI1
aI0
aI0
aI1
aI1
aI1
aI1
aI2
aI1
aI1
aI2
aI1
aI2
aI1
aI2
aI1
aI2
aI1
aI2
aI0
aI1
aI1
aI0
aI1
aI1
aI1
aI1
aI1
aI1
aI1
aI1
aI0
aI0
aI1
aI1
aI1
aI2
aI1
aI2
aI0
aI1
aI0
aI1
aI2
aI1
aI1
aI0
aI1
aI0
aI2
aI0
aI1
aI1
aI0
aI1
aI2
aI1
aI0
aI1
aI1
aI1
aI0
aI1
aI0
aI1
aI1
aI1
aI2
aI1
aI0
asg17
I00
sg18
F0.98979591836734693
sg19
F-0.56078857604297816
sg20
I503
sg21
I0
sg22
(lp953
I80
aI9
aI1
aI67
aI32
asg24
I97
sg25
I96
sg26
(lp954
I46
aI3
aI61
aI72
aI69
aI77
aI77
aI35
aI98
aI17
aI30
aI87
aI6
aI4
aI8
aI63
aI87
aI38
aI88
aI81
aI31
aI3
aI59
aI23
aI25
aI52
aI13
aI99
aI61
aI71
aI69
aI63
aI59
aI16
aI40
aI63
aI9
aI61
aI1
aI27
aI74
aI60
aI17
aI94
aI53
aI23
aI94
aI17
aI73
aI60
aI15
aI80
aI55
aI20
aI6
aI36
aI15
aI67
aI64
aI2
aI3
aI92
aI2
aI44
aI88
aI9
aI94
aI71
aI55
aI30
aI94
aI94
aI27
aI73
aI44
aI20
aI85
aI38
aI2
aI15
aI55
aI97
aI11
aI17
aI1
aI2
aI44
aI63
aI67
aI66
aI1
aI80
aI9
aI1
aI67
aI79
aI67
aI32
asg28
(lp955
I102
aI103
aI103
aI104
aI103
aI93
aI105
aI105
aI93
aI97
aI106
aI106
aI94
aI98
aI99
asg30
F1.0048976622587944
sg31
I503
sg32
F1042.892475274331
sg33
F1044.0333224587177
sg34
I304
sbag175
a(iDraughtCEMadmin
Player
p956
(dp957
g11
g429
sg13
(lp958
I0
aI1
aI1
aI2
aI0
aI0
aI2
aI0
aI0
aI1
aI2
aI2
aI2
aI0
aI0
aI0
aI2
aI1
aI0
aI1
aI0
aI1
aI1
aI1
aI1
aI0
aI0
aI0
aI1
aI1
asg15
(lp959
I0
aI1
aI1
aI2
aI0
aI0
aI2
aI0
aI0
aI1
aI2
aI2
aI2
aI0
aI0
aI0
aI2
aI1
aI0
aI1
aI0
aI1
aI1
aI1
aI1
aI0
aI0
aI0
aI1
aI1
asg17
I00
sg18
F0.76666666666666672
sg19
F-1.2534786132780256
sg20
I161
sg21
I0
sg22
(lp960
I26
aI41
aI34
aI29
aI78
aI18
asg24
I23
sg25
I98
sg26
(lp961
I48
aI45
aI59
aI87
aI85
aI66
aI39
aI3
aI96
aI18
aI52
aI42
aI13
aI79
aI26
aI56
aI90
aI49
aI67
aI13
aI12
aI65
aI90
aI76
aI26
aI41
aI34
aI29
aI78
aI18
asg28
(lp962
I27
aI28
aI29
aI28
aI31
aI23
aI29
aI32
aI24
aI23
aI30
aI34
aI25
aI24
aI21
aI30
aI35
aI25
aI25
aI22
aI24
asg30
F0.80259882579415154
sg31
I110
sg32
F971.15523607548801
sg33
F900.40529359499033
sg34
I105
sbag191
asS'ScorePoules'
p963
(lp964
(iDraughtCEMadmin
ScorePoule
p965
(dp966
S'added_players'
p967
(lp968
sS'previous_added'
p969
(lp970
sS'score'
p971
I175
sS'current_members'
p972
(lp973
sba(iDraughtCEMadmin
ScorePoule
p974
(dp975
g967
(lp976
sg969
(lp977
g38
asg971
I174
sg972
(lp978
sba(iDraughtCEMadmin
ScorePoule
p979
(dp980
g967
(lp981
sg969
(lp982
g38
asg971
I173
sg972
(lp983
sba(iDraughtCEMadmin
ScorePoule
p984
(dp985
g967
(lp986
sg969
(lp987
g38
asg971
I172
sg972
(lp988
sba(iDraughtCEMadmin
ScorePoule
p989
(dp990
g967
(lp991
sg969
(lp992
g38
asg971
I171
sg972
(lp993
sba(iDraughtCEMadmin
ScorePoule
p994
(dp995
g967
(lp996
sg969
(lp997
g38
asg971
I170
sg972
(lp998
sba(iDraughtCEMadmin
ScorePoule
p999
(dp1000
g967
(lp1001
g38
asg969
(lp1002
sg971
I169
sg972
(lp1003
g38
ag9
asba(iDraughtCEMadmin
ScorePoule
p1004
(dp1005
g967
(lp1006
sg969
(lp1007
sg971
I168
sg972
(lp1008
g54
ag47
asba(iDraughtCEMadmin
ScorePoule
p1009
(dp1010
g967
(lp1011
sg969
(lp1012
sg971
I167
sg972
(lp1013
sba(iDraughtCEMadmin
ScorePoule
p1014
(dp1015
g967
(lp1016
sg969
(lp1017
g70
asg971
I166
sg972
(lp1018
sba(iDraughtCEMadmin
ScorePoule
p1019
(dp1020
g967
(lp1021
g70
asg969
(lp1022
sg971
I165
sg972
(lp1023
g70
ag63
asba(iDraughtCEMadmin
ScorePoule
p1024
(dp1025
g967
(lp1026
g86
asg969
(lp1027
sg971
I164
sg972
(lp1028
g86
ag102
ag95
ag79
asba(iDraughtCEMadmin
ScorePoule
p1029
(dp1030
g967
(lp1031
sg969
(lp1032
sg971
I163
sg972
(lp1033
sba(iDraughtCEMadmin
ScorePoule
p1034
(dp1035
g967
(lp1036
sg969
(lp1037
g118
asg971
I162
sg972
(lp1038
sba(iDraughtCEMadmin
ScorePoule
p1039
(dp1040
g967
(lp1041
g118
asg969
(lp1042
sg971
I161
sg972
(lp1043
g118
ag111
asba(iDraughtCEMadmin
ScorePoule
p1044
(dp1045
g967
(lp1046
sg969
(lp1047
sg971
I160
sg972
(lp1048
sba(iDraughtCEMadmin
ScorePoule
p1049
(dp1050
g967
(lp1051
sg969
(lp1052
sg971
I159
sg972
(lp1053
g134
ag127
asba(iDraughtCEMadmin
ScorePoule
p1054
(dp1055
g967
(lp1056
sg969
(lp1057
sg971
I158
sg972
(lp1058
sba(iDraughtCEMadmin
ScorePoule
p1059
(dp1060
g967
(lp1061
sg969
(lp1062
g150
asg971
I157
sg972
(lp1063
sba(iDraughtCEMadmin
ScorePoule
p1064
(dp1065
g967
(lp1066
g150
asg969
(lp1067
sg971
I156
sg972
(lp1068
g150
ag166
ag159
ag143
asba(iDraughtCEMadmin
ScorePoule
p1069
(dp1070
g967
(lp1071
sg969
(lp1072
g182
asg971
I155
sg972
(lp1073
sba(iDraughtCEMadmin
ScorePoule
p1074
(dp1075
g967
(lp1076
sg969
(lp1077
g182
asg971
I154
sg972
(lp1078
sba(iDraughtCEMadmin
ScorePoule
p1079
(dp1080
g967
(lp1081
g182
asg969
(lp1082
sg971
I153
sg972
(lp1083
g182
ag175
asba(iDraughtCEMadmin
ScorePoule
p1084
(dp1085
g967
(lp1086
sg969
(lp1087
sg971
I152
sg972
(lp1088
sba(iDraughtCEMadmin
ScorePoule
p1089
(dp1090
g967
(lp1091
g198
asg969
(lp1092
sg971
I151
sg972
(lp1093
g198
ag191
asba(iDraughtCEMadmin
ScorePoule
p1094
(dp1095
g967
(lp1096
sg969
(lp1097
sg971
I150
sg972
(lp1098
sba(iDraughtCEMadmin
ScorePoule
p1099
(dp1100
g967
(lp1101
sg969
(lp1102
sg971
I149
sg972
(lp1103
sba(iDraughtCEMadmin
ScorePoule
p1104
(dp1105
g967
(lp1106
g214
asg969
(lp1107
sg971
I148
sg972
(lp1108
g214
ag207
asbasS'NrGames'
p1109
I3969
sS'ParameterList'
p1110
(lp1111
(iDraughtCEMcalc
ParameterRecord
p1112
(dp1113
S'sigma'
p1114
F0.23095664056257376
sS'name'
p1115
S'king'
p1116
sS'mean'
p1117
F0.0
sba(iDraughtCEMcalc
ParameterRecord
p1118
(dp1119
g1114
F0.6145673170553817
sg1115
S'man_position'
p1120
sg1117
F-0.45814536593707744
sba(iDraughtCEMcalc
ParameterRecord
p1121
(dp1122
g1114
F0.6145673170553817
sg1115
S'king_position'
p1123
sg1117
F-0.45814536593707744
sba(iDraughtCEMcalc
ParameterRecord
p1124
(dp1125
g1114
F0.6145673170553817
sg1115
S'row'
p1126
sg1117
F-0.45814536593707744
sba(iDraughtCEMcalc
ParameterRecord
p1127
(dp1128
g1114
F0.6145673170553817
sg1115
S'man_locked_bonus'
p1129
sg1117
F-0.45814536593707744
sba(iDraughtCEMcalc
ParameterRecord
p1130
(dp1131
g1114
F0.6145673170553817
sg1115
S'avoid_4641'
p1132
sg1117
F-0.45814536593707744
sba(iDraughtCEMcalc
ParameterRecord
p1133
(dp1134
g1114
F0.6145673170553817
sg1115
S'avoid_2324'
p1135
sg1117
F-0.45814536593707744
sba(iDraughtCEMcalc
ParameterRecord
p1136
(dp1137
g1114
F0.6145673170553817
sg1115
S'avoid_2335'
p1138
sg1117
F-0.45814536593707744
sba(iDraughtCEMcalc
ParameterRecord
p1139
(dp1140
g1114
F0.6145673170553817
sg1115
S'2_8_13'
p1141
sg1117
F-0.45814536593707744
sba(iDraughtCEMcalc
ParameterRecord
p1142
(dp1143
g1114
F0.6145673170553817
sg1115
S'253035'
p1144
sg1117
F-0.45814536593707744
sba(iDraughtCEMcalc
ParameterRecord
p1145
(dp1146
g1114
F0.6145673170553817
sg1115
S'klassiek'
p1147
sg1117
F-0.45814536593707744
sba(iDraughtCEMcalc
ParameterRecord
p1148
(dp1149
g1114
F0.6145673170553817
sg1115
S'tempi'
p1150
sg1117
F-0.45814536593707744
sba(iDraughtCEMcalc
ParameterRecord
p1151
(dp1152
g1114
F0.6145673170553817
sg1115
S'ketting_stelling'
p1153
sg1117
F-0.45814536593707744
sba(iDraughtCEMcalc
ParameterRecord
p1154
(dp1155
g1114
F0.6145673170553817
sg1115
S'ketting_stelling_2'
p1156
sg1117
F-0.45814536593707744
sba(iDraughtCEMcalc
ParameterRecord
p1157
(dp1158
g1114
F0.6145673170553817
sg1115
S'halve_hek'
p1159
sg1117
F-0.45814536593707744
sba(iDraughtCEMcalc
ParameterRecord
p1160
(dp1161
g1114
F0.6145673170553817
sg1115
S'active_15'
p1162
sg1117
F-0.45814536593707744
sba(iDraughtCEMcalc
ParameterRecord
p1163
(dp1164
g1114
F1.2663103497597108
sg1115
S'slechte_binding'
p1165
sg1117
F-3.1073040492110957
sba(iDraughtCEMcalc
ParameterRecord
p1166
(dp1167
g1114
F0.6145673170553817
sg1115
S'free_path'
p1168
sg1117
F-0.45814536593707744
sba(iDraughtCEMcalc
ParameterRecord
p1169
(dp1170
g1114
F0.6145673170553817
sg1115
S'fit'
p1171
sg1117
F-0.45814536593707744
sba(iDraughtCEMcalc
ParameterRecord
p1172
(dp1173
g1114
F0.6145673170553817
sg1115
S'edge_35'
p1174
sg1117
F-0.45814536593707744
sba(iDraughtCEMcalc
ParameterRecord
p1175
(dp1176
g1114
F0.6145673170553817
sg1115
S'edge_36'
p1177
sg1117
F-0.45814536593707744
sba(iDraughtCEMcalc
ParameterRecord
p1178
(dp1179
g1114
F0.6145673170553817
sg1115
S'11_16_17'
p1180
sg1117
F-0.45814536593707744
sba(iDraughtCEMcalc
ParameterRecord
p1181
(dp1182
g1114
F0.6145673170553817
sg1115
S'voorpost'
p1183
sg1117
F-0.45814536593707744
sba(iDraughtCEMcalc
ParameterRecord
p1184
(dp1185
g1114
F0.6145673170553817
sg1115
S'locked'
p1186
sg1117
F-0.45814536593707744
sba(iDraughtCEMcalc
ParameterRecord
p1187
(dp1188
g1114
F0.6145673170553817
sg1115
S'vleugel_opsluiting'
p1189
sg1117
F-0.45814536593707744
sba(iDraughtCEMcalc
ParameterRecord
p1190
(dp1191
g1114
F0.6145673170553817
sg1115
S'tandem'
p1192
sg1117
F-0.45814536593707744
sba(iDraughtCEMcalc
ParameterRecord
p1193
(dp1194
g1114
F0.6145673170553817
sg1115
S'mobility'
p1195
sg1117
F-0.45814536593707744
sba(iDraughtCEMcalc
ParameterRecord
p1196
(dp1197
g1114
F0.6145673170553817
sg1115
S'maze_penalty'
p1198
sg1117
F-0.45814536593707744
sba(iDraughtCEMcalc
ParameterRecord
p1199
(dp1200
g1114
F0.6145673170553817
sg1115
S'canon'
p1201
sg1117
F-0.45814536593707744
sbasS'Players'
p1202
(lp1203
g38
ag9
ag54
ag47
ag70
ag86
ag63
ag102
ag95
ag79
ag118
ag111
ag134
ag127
ag150
ag182
ag166
ag159
ag143
ag175
ag198
ag191
ag214
ag207
asS'NrPlayers'
p1204
I100
sS'avg_std_dev'
p1205
F0.0
sS'decay_poule_size'
p1206
(itest_log_decay_poule_size
DecayPouleSize
p1207
(dp1208
S'N0'
p1209
F80.0
sS'third_std_dev'
p1210
F108.13406753780428
sS'T'
p1211
F226.0
sS'lamba'
p1212
I5
sS'start_poule_size'
p1213
I100
sS'nr_of_rounds_needed'
p1214
I226
sbsS'NrRounds'
p1215
I5
sS'Round'
p1216
I2
sS'PairingMode'
p1217
g12
sS'PouleSize'
p1218
I24
sS'Series'
p1219
I0
sS'MinLevel'
p1220
I0
sS'CurrentTable'
p1221
I1
sS'TotNrOfRounds'
p1222
I148
sS'main'
p1223
NsS'avg_05_10_15_diff'
p1224
(lp1225
F62.497516454001243
aF23.850824157746274
aF23.495348315831734
aF28.271941310001921
aF21.017008665935464
aF23.377650325188824
aF14.778357516119286
aF20.432714976711168
aF16.865721159366558
aF16.562374055988812
aF13.651664497496768
aF12.875138468436489
aF12.782188663395573
aF11.779370072222264
aF6.8453860839908884
aF5.5713560386791414
aF7.6492353019154962
aF9.9454474015876713
aF11.199070720072541
aF12.331108300719734
aF13.344675614105881
aF14.307093404650232
aF15.636310306660334
aF15.7016879577277
aF15.014503232077004
aF14.814908440133195
aF14.868596546311437
aF14.366968940399829
asb.